
matriOperations:     file format elf64-littleriscv


Disassembly of section .plt:

00000000000014d0 <.plt>:
    14d0:	0004b397          	auipc	t2,0x4b
    14d4:	41c30333          	sub	t1,t1,t3
    14d8:	b403be03          	ld	t3,-1216(t2) # 4c010 <__TMC_END__>
    14dc:	fd430313          	add	t1,t1,-44
    14e0:	b4038293          	add	t0,t2,-1216
    14e4:	00135313          	srl	t1,t1,0x1
    14e8:	0082b283          	ld	t0,8(t0)
    14ec:	000e0067          	jr	t3

00000000000014f0 <_ZNSo3putEc@plt>:
    14f0:	0004be17          	auipc	t3,0x4b
    14f4:	b30e3e03          	ld	t3,-1232(t3) # 4c020 <_ZNSo3putEc@GLIBCXX_3.4>
    14f8:	000e0367          	jalr	t1,t3
    14fc:	00000013          	nop

0000000000001500 <_ZNSt8ios_baseC2Ev@plt>:
    1500:	0004be17          	auipc	t3,0x4b
    1504:	b28e3e03          	ld	t3,-1240(t3) # 4c028 <_ZNSt8ios_baseC2Ev@GLIBCXX_3.4>
    1508:	000e0367          	jalr	t1,t3
    150c:	00000013          	nop

0000000000001510 <_ZNSt8ios_baseD2Ev@plt>:
    1510:	0004be17          	auipc	t3,0x4b
    1514:	b20e3e03          	ld	t3,-1248(t3) # 4c030 <_ZNSt8ios_baseD2Ev@GLIBCXX_3.4>
    1518:	000e0367          	jalr	t1,t3
    151c:	00000013          	nop

0000000000001520 <log@plt>:
    1520:	0004be17          	auipc	t3,0x4b
    1524:	b18e3e03          	ld	t3,-1256(t3) # 4c038 <log@GLIBC_2.27>
    1528:	000e0367          	jalr	t1,t3
    152c:	00000013          	nop

0000000000001530 <exp@plt>:
    1530:	0004be17          	auipc	t3,0x4b
    1534:	b10e3e03          	ld	t3,-1264(t3) # 4c040 <exp@GLIBC_2.27>
    1538:	000e0367          	jalr	t1,t3
    153c:	00000013          	nop

0000000000001540 <_ZNSt9basic_iosIcSt11char_traitsIcEE7copyfmtERKS2_@plt>:
    1540:	0004be17          	auipc	t3,0x4b
    1544:	b08e3e03          	ld	t3,-1272(t3) # 4c048 <_ZNSt9basic_iosIcSt11char_traitsIcEE7copyfmtERKS2_@GLIBCXX_3.4>
    1548:	000e0367          	jalr	t1,t3
    154c:	00000013          	nop

0000000000001550 <__cxa_allocate_exception@plt>:
    1550:	0004be17          	auipc	t3,0x4b
    1554:	b00e3e03          	ld	t3,-1280(t3) # 4c050 <__cxa_allocate_exception@CXXABI_1.3>
    1558:	000e0367          	jalr	t1,t3
    155c:	00000013          	nop

0000000000001560 <_ZNSt7__cxx1112basic_stringIcSt11char_traitsIcESaIcEE9_M_assignERKS4_@plt>:
    1560:	0004be17          	auipc	t3,0x4b
    1564:	af8e3e03          	ld	t3,-1288(t3) # 4c058 <_ZNSt7__cxx1112basic_stringIcSt11char_traitsIcESaIcEE9_M_assignERKS4_@GLIBCXX_3.4.21>
    1568:	000e0367          	jalr	t1,t3
    156c:	00000013          	nop

0000000000001570 <__cxa_guard_release@plt>:
    1570:	0004be17          	auipc	t3,0x4b
    1574:	af0e3e03          	ld	t3,-1296(t3) # 4c060 <__cxa_guard_release@CXXABI_1.3>
    1578:	000e0367          	jalr	t1,t3
    157c:	00000013          	nop

0000000000001580 <_ZNSo5flushEv@plt>:
    1580:	0004be17          	auipc	t3,0x4b
    1584:	ae8e3e03          	ld	t3,-1304(t3) # 4c068 <_ZNSo5flushEv@GLIBCXX_3.4>
    1588:	000e0367          	jalr	t1,t3
    158c:	00000013          	nop

0000000000001590 <__libc_start_main@plt>:
    1590:	0004be17          	auipc	t3,0x4b
    1594:	ae0e3e03          	ld	t3,-1312(t3) # 4c070 <__libc_start_main@GLIBC_2.34>
    1598:	000e0367          	jalr	t1,t3
    159c:	00000013          	nop

00000000000015a0 <_ZNSt7__cxx1118basic_stringstreamIcSt11char_traitsIcESaIcEED1Ev@plt>:
    15a0:	0004be17          	auipc	t3,0x4b
    15a4:	ad8e3e03          	ld	t3,-1320(t3) # 4c078 <_ZNSt7__cxx1118basic_stringstreamIcSt11char_traitsIcESaIcEED1Ev@GLIBCXX_3.4.21>
    15a8:	000e0367          	jalr	t1,t3
    15ac:	00000013          	nop

00000000000015b0 <__assert_fail@plt>:
    15b0:	0004be17          	auipc	t3,0x4b
    15b4:	ad0e3e03          	ld	t3,-1328(t3) # 4c080 <__assert_fail@GLIBC_2.27>
    15b8:	000e0367          	jalr	t1,t3
    15bc:	00000013          	nop

00000000000015c0 <_ZdlPv@plt>:
    15c0:	0004be17          	auipc	t3,0x4b
    15c4:	ac8e3e03          	ld	t3,-1336(t3) # 4c088 <_ZdlPv@GLIBCXX_3.4>
    15c8:	000e0367          	jalr	t1,t3
    15cc:	00000013          	nop

00000000000015d0 <_ZSt16__ostream_insertIcSt11char_traitsIcEERSt13basic_ostreamIT_T0_ES6_PKS3_l@plt>:
    15d0:	0004be17          	auipc	t3,0x4b
    15d4:	ac0e3e03          	ld	t3,-1344(t3) # 4c090 <_ZSt16__ostream_insertIcSt11char_traitsIcEERSt13basic_ostreamIT_T0_ES6_PKS3_l@GLIBCXX_3.4.9>
    15d8:	000e0367          	jalr	t1,t3
    15dc:	00000013          	nop

00000000000015e0 <_ZNKSt5ctypeIcE13_M_widen_initEv@plt>:
    15e0:	0004be17          	auipc	t3,0x4b
    15e4:	ab8e3e03          	ld	t3,-1352(t3) # 4c098 <_ZNKSt5ctypeIcE13_M_widen_initEv@GLIBCXX_3.4.11>
    15e8:	000e0367          	jalr	t1,t3
    15ec:	00000013          	nop

00000000000015f0 <free@plt>:
    15f0:	0004be17          	auipc	t3,0x4b
    15f4:	ab0e3e03          	ld	t3,-1360(t3) # 4c0a0 <free@GLIBC_2.27>
    15f8:	000e0367          	jalr	t1,t3
    15fc:	00000013          	nop

0000000000001600 <memcpy@plt>:
    1600:	0004be17          	auipc	t3,0x4b
    1604:	aa8e3e03          	ld	t3,-1368(t3) # 4c0a8 <memcpy@GLIBC_2.27>
    1608:	000e0367          	jalr	t1,t3
    160c:	00000013          	nop

0000000000001610 <_ZSt16__throw_bad_castv@plt>:
    1610:	0004be17          	auipc	t3,0x4b
    1614:	aa0e3e03          	ld	t3,-1376(t3) # 4c0b0 <_ZSt16__throw_bad_castv@GLIBCXX_3.4>
    1618:	000e0367          	jalr	t1,t3
    161c:	00000013          	nop

0000000000001620 <rand@plt>:
    1620:	0004be17          	auipc	t3,0x4b
    1624:	a98e3e03          	ld	t3,-1384(t3) # 4c0b8 <rand@GLIBC_2.27>
    1628:	000e0367          	jalr	t1,t3
    162c:	00000013          	nop

0000000000001630 <memset@plt>:
    1630:	0004be17          	auipc	t3,0x4b
    1634:	a90e3e03          	ld	t3,-1392(t3) # 4c0c0 <memset@GLIBC_2.27>
    1638:	000e0367          	jalr	t1,t3
    163c:	00000013          	nop

0000000000001640 <_ZNSt9basic_iosIcSt11char_traitsIcEE4initEPSt15basic_streambufIcS1_E@plt>:
    1640:	0004be17          	auipc	t3,0x4b
    1644:	a88e3e03          	ld	t3,-1400(t3) # 4c0c8 <_ZNSt9basic_iosIcSt11char_traitsIcEE4initEPSt15basic_streambufIcS1_E@GLIBCXX_3.4>
    1648:	000e0367          	jalr	t1,t3
    164c:	00000013          	nop

0000000000001650 <_ZNSt6localeD1Ev@plt>:
    1650:	0004be17          	auipc	t3,0x4b
    1654:	a80e3e03          	ld	t3,-1408(t3) # 4c0d0 <_ZNSt6localeD1Ev@GLIBCXX_3.4>
    1658:	000e0367          	jalr	t1,t3
    165c:	00000013          	nop

0000000000001660 <_ZNSt8ios_base4InitC1Ev@plt>:
    1660:	0004be17          	auipc	t3,0x4b
    1664:	a78e3e03          	ld	t3,-1416(t3) # 4c0d8 <_ZNSt8ios_base4InitC1Ev@GLIBCXX_3.4>
    1668:	000e0367          	jalr	t1,t3
    166c:	00000013          	nop

0000000000001670 <_ZNSt7__cxx1112basic_stringIcSt11char_traitsIcESaIcEE10_M_replaceEmmPKcm@plt>:
    1670:	0004be17          	auipc	t3,0x4b
    1674:	a70e3e03          	ld	t3,-1424(t3) # 4c0e0 <_ZNSt7__cxx1112basic_stringIcSt11char_traitsIcESaIcEE10_M_replaceEmmPKcm@GLIBCXX_3.4.21>
    1678:	000e0367          	jalr	t1,t3
    167c:	00000013          	nop

0000000000001680 <_ZNSo9_M_insertIdEERSoT_@plt>:
    1680:	0004be17          	auipc	t3,0x4b
    1684:	a68e3e03          	ld	t3,-1432(t3) # 4c0e8 <_ZNSo9_M_insertIdEERSoT_@GLIBCXX_3.4.9>
    1688:	000e0367          	jalr	t1,t3
    168c:	00000013          	nop

0000000000001690 <expf@plt>:
    1690:	0004be17          	auipc	t3,0x4b
    1694:	a60e3e03          	ld	t3,-1440(t3) # 4c0f0 <expf@GLIBC_2.27>
    1698:	000e0367          	jalr	t1,t3
    169c:	00000013          	nop

00000000000016a0 <__cxa_throw@plt>:
    16a0:	0004be17          	auipc	t3,0x4b
    16a4:	a58e3e03          	ld	t3,-1448(t3) # 4c0f8 <__cxa_throw@CXXABI_1.3>
    16a8:	000e0367          	jalr	t1,t3
    16ac:	00000013          	nop

00000000000016b0 <_Unwind_Resume@plt>:
    16b0:	0004be17          	auipc	t3,0x4b
    16b4:	a50e3e03          	ld	t3,-1456(t3) # 4c100 <_Unwind_Resume@GCC_3.0>
    16b8:	000e0367          	jalr	t1,t3
    16bc:	00000013          	nop

00000000000016c0 <_ZNSt7__cxx1112basic_stringIcSt11char_traitsIcESaIcEE9_M_createERmm@plt>:
    16c0:	0004be17          	auipc	t3,0x4b
    16c4:	a48e3e03          	ld	t3,-1464(t3) # 4c108 <_ZNSt7__cxx1112basic_stringIcSt11char_traitsIcESaIcEE9_M_createERmm@GLIBCXX_3.4.21>
    16c8:	000e0367          	jalr	t1,t3
    16cc:	00000013          	nop

00000000000016d0 <__cxa_atexit@plt>:
    16d0:	0004be17          	auipc	t3,0x4b
    16d4:	a40e3e03          	ld	t3,-1472(t3) # 4c110 <__cxa_atexit@GLIBC_2.27>
    16d8:	000e0367          	jalr	t1,t3
    16dc:	00000013          	nop

00000000000016e0 <_ZNSt7__cxx1112basic_stringIcSt11char_traitsIcESaIcEE9_M_mutateEmmPKcm@plt>:
    16e0:	0004be17          	auipc	t3,0x4b
    16e4:	a38e3e03          	ld	t3,-1480(t3) # 4c118 <_ZNSt7__cxx1112basic_stringIcSt11char_traitsIcESaIcEE9_M_mutateEmmPKcm@GLIBCXX_3.4.21>
    16e8:	000e0367          	jalr	t1,t3
    16ec:	00000013          	nop

00000000000016f0 <__cxa_guard_acquire@plt>:
    16f0:	0004be17          	auipc	t3,0x4b
    16f4:	a30e3e03          	ld	t3,-1488(t3) # 4c120 <__cxa_guard_acquire@CXXABI_1.3>
    16f8:	000e0367          	jalr	t1,t3
    16fc:	00000013          	nop

0000000000001700 <logf@plt>:
    1700:	0004be17          	auipc	t3,0x4b
    1704:	a28e3e03          	ld	t3,-1496(t3) # 4c128 <logf@GLIBC_2.27>
    1708:	000e0367          	jalr	t1,t3
    170c:	00000013          	nop

0000000000001710 <malloc@plt>:
    1710:	0004be17          	auipc	t3,0x4b
    1714:	a20e3e03          	ld	t3,-1504(t3) # 4c130 <malloc@GLIBC_2.27>
    1718:	000e0367          	jalr	t1,t3
    171c:	00000013          	nop

0000000000001720 <_ZNSt6localeC1Ev@plt>:
    1720:	0004be17          	auipc	t3,0x4b
    1724:	a18e3e03          	ld	t3,-1512(t3) # 4c138 <_ZNSt6localeC1Ev@GLIBCXX_3.4>
    1728:	000e0367          	jalr	t1,t3
    172c:	00000013          	nop

Disassembly of section .text:

0000000000001730 <_GLOBAL__sub_I_matriOperations.cpp>:
    1730:	1141                	add	sp,sp,-16
    1732:	e406                	sd	ra,8(sp)
    1734:	e022                	sd	s0,0(sp)
    1736:	0004b517          	auipc	a0,0x4b
    173a:	c0a50413          	add	s0,a0,-1014 # 4c340 <_ZStL8__ioinit>
    173e:	8522                	mv	a0,s0
    1740:	f21ff0ef          	jal	1660 <_ZNSt8ios_base4InitC1Ev@plt>
    1744:	0004b517          	auipc	a0,0x4b
    1748:	a6c53503          	ld	a0,-1428(a0) # 4c1b0 <_ZNSt8ios_base4InitD1Ev@GLIBCXX_3.4>
    174c:	0004b597          	auipc	a1,0x4b
    1750:	8b458613          	add	a2,a1,-1868 # 4c000 <__dso_handle>
    1754:	85a2                	mv	a1,s0
    1756:	60a2                	ld	ra,8(sp)
    1758:	6402                	ld	s0,0(sp)
    175a:	0141                	add	sp,sp,16
    175c:	bf95                	j	16d0 <__cxa_atexit@plt>
	...

0000000000001760 <_start>:
    1760:	022000ef          	jal	1782 <load_gp>
    1764:	87aa                	mv	a5,a0
    1766:	0004b517          	auipc	a0,0x4b
    176a:	9f253503          	ld	a0,-1550(a0) # 4c158 <_GLOBAL_OFFSET_TABLE_+0x18>
    176e:	6582                	ld	a1,0(sp)
    1770:	0030                	add	a2,sp,8
    1772:	ff017113          	and	sp,sp,-16
    1776:	4681                	li	a3,0
    1778:	4701                	li	a4,0
    177a:	880a                	mv	a6,sp
    177c:	e15ff0ef          	jal	1590 <__libc_start_main@plt>
    1780:	9002                	ebreak

0000000000001782 <load_gp>:
    1782:	0004b197          	auipc	gp,0x4b
    1786:	07e18193          	add	gp,gp,126 # 4c800 <__global_pointer$>
    178a:	8082                	ret
	...

000000000000178e <deregister_tm_clones>:
    178e:	0004b517          	auipc	a0,0x4b
    1792:	88250513          	add	a0,a0,-1918 # 4c010 <__TMC_END__>
    1796:	0004b797          	auipc	a5,0x4b
    179a:	87a78793          	add	a5,a5,-1926 # 4c010 <__TMC_END__>
    179e:	00a78863          	beq	a5,a0,17ae <deregister_tm_clones+0x20>
    17a2:	0004b797          	auipc	a5,0x4b
    17a6:	9f67b783          	ld	a5,-1546(a5) # 4c198 <_ITM_deregisterTMCloneTable@Base>
    17aa:	c391                	beqz	a5,17ae <deregister_tm_clones+0x20>
    17ac:	8782                	jr	a5
    17ae:	8082                	ret

00000000000017b0 <register_tm_clones>:
    17b0:	0004b517          	auipc	a0,0x4b
    17b4:	86050513          	add	a0,a0,-1952 # 4c010 <__TMC_END__>
    17b8:	0004b597          	auipc	a1,0x4b
    17bc:	85858593          	add	a1,a1,-1960 # 4c010 <__TMC_END__>
    17c0:	8d89                	sub	a1,a1,a0
    17c2:	4035d793          	sra	a5,a1,0x3
    17c6:	91fd                	srl	a1,a1,0x3f
    17c8:	95be                	add	a1,a1,a5
    17ca:	8585                	sra	a1,a1,0x1
    17cc:	c599                	beqz	a1,17da <register_tm_clones+0x2a>
    17ce:	0004b797          	auipc	a5,0x4b
    17d2:	9d27b783          	ld	a5,-1582(a5) # 4c1a0 <_ITM_registerTMCloneTable@Base>
    17d6:	c391                	beqz	a5,17da <register_tm_clones+0x2a>
    17d8:	8782                	jr	a5
    17da:	8082                	ret

00000000000017dc <__do_global_dtors_aux>:
    17dc:	1141                	add	sp,sp,-16
    17de:	e022                	sd	s0,0(sp)
    17e0:	0004b417          	auipc	s0,0x4b
    17e4:	b7040413          	add	s0,s0,-1168 # 4c350 <completed.0>
    17e8:	00044783          	lbu	a5,0(s0)
    17ec:	e406                	sd	ra,8(sp)
    17ee:	e385                	bnez	a5,180e <__do_global_dtors_aux+0x32>
    17f0:	0004b797          	auipc	a5,0x4b
    17f4:	9887b783          	ld	a5,-1656(a5) # 4c178 <__cxa_finalize@GLIBC_2.27>
    17f8:	c791                	beqz	a5,1804 <__do_global_dtors_aux+0x28>
    17fa:	0004b517          	auipc	a0,0x4b
    17fe:	80653503          	ld	a0,-2042(a0) # 4c000 <__dso_handle>
    1802:	9782                	jalr	a5
    1804:	f8bff0ef          	jal	178e <deregister_tm_clones>
    1808:	4785                	li	a5,1
    180a:	00f40023          	sb	a5,0(s0)
    180e:	60a2                	ld	ra,8(sp)
    1810:	6402                	ld	s0,0(sp)
    1812:	0141                	add	sp,sp,16
    1814:	8082                	ret

0000000000001816 <frame_dummy>:
    1816:	bf69                	j	17b0 <register_tm_clones>

0000000000001818 <main>:
    1818:	1141                	add	sp,sp,-16
    181a:	e406                	sd	ra,8(sp)
    181c:	e022                	sd	s0,0(sp)
    181e:	0004b517          	auipc	a0,0x4b
    1822:	96a53403          	ld	s0,-1686(a0) # 4c188 <_ZSt4cout@GLIBCXX_3.4>
    1826:	00028517          	auipc	a0,0x28
    182a:	0ea50593          	add	a1,a0,234 # 29910 <_IO_stdin_used+0x28>
    182e:	4669                	li	a2,26
    1830:	8522                	mv	a0,s0
    1832:	d9fff0ef          	jal	15d0 <_ZSt16__ostream_insertIcSt11char_traitsIcEERSt13basic_ostreamIT_T0_ES6_PKS3_l@plt>
    1836:	022000ef          	jal	1858 <_Z16matrixOperationsIdEvv>
    183a:	00028517          	auipc	a0,0x28
    183e:	0f150593          	add	a1,a0,241 # 2992b <_IO_stdin_used+0x43>
    1842:	4669                	li	a2,26
    1844:	8522                	mv	a0,s0
    1846:	d8bff0ef          	jal	15d0 <_ZSt16__ostream_insertIcSt11char_traitsIcEERSt13basic_ostreamIT_T0_ES6_PKS3_l@plt>
    184a:	6cc010ef          	jal	2f16 <_Z16matrixOperationsIfEvv>
    184e:	4501                	li	a0,0
    1850:	60a2                	ld	ra,8(sp)
    1852:	6402                	ld	s0,0(sp)
    1854:	0141                	add	sp,sp,16
    1856:	8082                	ret

0000000000001858 <_Z16matrixOperationsIdEvv>:
    1858:	cf010113          	add	sp,sp,-784
    185c:	30113423          	sd	ra,776(sp)
    1860:	30813023          	sd	s0,768(sp)
    1864:	2e913c23          	sd	s1,760(sp)
    1868:	2f213823          	sd	s2,752(sp)
    186c:	2f313423          	sd	s3,744(sp)
    1870:	2f413023          	sd	s4,736(sp)
    1874:	2c813c27          	fsd	fs0,728(sp)
    1878:	440d                	li	s0,3
    187a:	ee22                	sd	s0,280(sp)
    187c:	f222                	sd	s0,288(sp)
    187e:	0588                	add	a0,sp,704
    1880:	0a2c                	add	a1,sp,280
    1882:	0c8040ef          	jal	594a <_ZN5Eigen15PlainObjectBaseINS_6MatrixIdLin1ELin1ELi0ELin1ELin1EEEEC2INS_14CwiseNullaryOpINS_8internal16scalar_random_opIdEES2_EEEERKNS_9DenseBaseIT_EE>
    1886:	ee22                	sd	s0,280(sp)
    1888:	f222                	sd	s0,288(sp)
    188a:	1528                	add	a0,sp,680
    188c:	0a2c                	add	a1,sp,280
    188e:	0bc040ef          	jal	594a <_ZN5Eigen15PlainObjectBaseINS_6MatrixIdLin1ELin1ELi0ELin1ELin1EEEEC2INS_14CwiseNullaryOpINS_8internal16scalar_random_opIdEES2_EEEERKNS_9DenseBaseIT_EE>
    1892:	0004b517          	auipc	a0,0x4b
    1896:	8f653503          	ld	a0,-1802(a0) # 4c188 <_ZSt4cout@GLIBCXX_3.4>
    189a:	00028597          	auipc	a1,0x28
    189e:	21b58593          	add	a1,a1,539 # 29ab5 <_IO_stdin_used+0x1cd>
    18a2:	4629                	li	a2,10
    18a4:	d2dff0ef          	jal	15d0 <_ZSt16__ostream_insertIcSt11char_traitsIcEERSt13basic_ostreamIT_T0_ES6_PKS3_l@plt>
    18a8:	0004b517          	auipc	a0,0x4b
    18ac:	8e053503          	ld	a0,-1824(a0) # 4c188 <_ZSt4cout@GLIBCXX_3.4>
    18b0:	058c                	add	a1,sp,704
    18b2:	541020ef          	jal	45f2 <_ZN5EigenlsINS_6MatrixIdLin1ELin1ELi0ELin1ELin1EEEEERSoS3_RKNS_9DenseBaseIT_EE>
    18b6:	842a                	mv	s0,a0
    18b8:	6108                	ld	a0,0(a0)
    18ba:	fe853503          	ld	a0,-24(a0)
    18be:	9522                	add	a0,a0,s0
    18c0:	7964                	ld	s1,240(a0)
    18c2:	e099                	bnez	s1,18c8 <_Z16matrixOperationsIdEvv+0x70>
    18c4:	1a00106f          	j	2a64 <_Z16matrixOperationsIdEvv+0x120c>
    18c8:	0384c503          	lbu	a0,56(s1)
    18cc:	c501                	beqz	a0,18d4 <_Z16matrixOperationsIdEvv+0x7c>
    18ce:	0434c583          	lbu	a1,67(s1)
    18d2:	a811                	j	18e6 <_Z16matrixOperationsIdEvv+0x8e>
    18d4:	8526                	mv	a0,s1
    18d6:	d0bff0ef          	jal	15e0 <_ZNKSt5ctypeIcE13_M_widen_initEv@plt>
    18da:	6088                	ld	a0,0(s1)
    18dc:	7910                	ld	a2,48(a0)
    18de:	45a9                	li	a1,10
    18e0:	8526                	mv	a0,s1
    18e2:	9602                	jalr	a2
    18e4:	85aa                	mv	a1,a0
    18e6:	8522                	mv	a0,s0
    18e8:	c09ff0ef          	jal	14f0 <_ZNSo3putEc@plt>
    18ec:	c95ff0ef          	jal	1580 <_ZNSo5flushEv@plt>
    18f0:	0004b517          	auipc	a0,0x4b
    18f4:	89853503          	ld	a0,-1896(a0) # 4c188 <_ZSt4cout@GLIBCXX_3.4>
    18f8:	00028597          	auipc	a1,0x28
    18fc:	04e58593          	add	a1,a1,78 # 29946 <_IO_stdin_used+0x5e>
    1900:	4629                	li	a2,10
    1902:	ccfff0ef          	jal	15d0 <_ZSt16__ostream_insertIcSt11char_traitsIcEERSt13basic_ostreamIT_T0_ES6_PKS3_l@plt>
    1906:	0004b517          	auipc	a0,0x4b
    190a:	88253503          	ld	a0,-1918(a0) # 4c188 <_ZSt4cout@GLIBCXX_3.4>
    190e:	152c                	add	a1,sp,680
    1910:	4e3020ef          	jal	45f2 <_ZN5EigenlsINS_6MatrixIdLin1ELin1ELi0ELin1ELin1EEEEERSoS3_RKNS_9DenseBaseIT_EE>
    1914:	842a                	mv	s0,a0
    1916:	6108                	ld	a0,0(a0)
    1918:	fe853503          	ld	a0,-24(a0)
    191c:	9522                	add	a0,a0,s0
    191e:	7964                	ld	s1,240(a0)
    1920:	e099                	bnez	s1,1926 <_Z16matrixOperationsIdEvv+0xce>
    1922:	1420106f          	j	2a64 <_Z16matrixOperationsIdEvv+0x120c>
    1926:	0384c503          	lbu	a0,56(s1)
    192a:	c501                	beqz	a0,1932 <_Z16matrixOperationsIdEvv+0xda>
    192c:	0434c583          	lbu	a1,67(s1)
    1930:	a811                	j	1944 <_Z16matrixOperationsIdEvv+0xec>
    1932:	8526                	mv	a0,s1
    1934:	cadff0ef          	jal	15e0 <_ZNKSt5ctypeIcE13_M_widen_initEv@plt>
    1938:	6088                	ld	a0,0(s1)
    193a:	7910                	ld	a2,48(a0)
    193c:	45a9                	li	a1,10
    193e:	8526                	mv	a0,s1
    1940:	9602                	jalr	a2
    1942:	85aa                	mv	a1,a0
    1944:	8522                	mv	a0,s0
    1946:	babff0ef          	jal	14f0 <_ZNSo3putEc@plt>
    194a:	c37ff0ef          	jal	1580 <_ZNSo5flushEv@plt>
    194e:	2d013503          	ld	a0,720(sp)
    1952:	2b013583          	ld	a1,688(sp)
    1956:	00b50463          	beq	a0,a1,195e <_Z16matrixOperationsIdEvv+0x106>
    195a:	2760106f          	j	2bd0 <_Z16matrixOperationsIdEvv+0x1378>
    195e:	0588                	add	a0,sp,704
    1960:	ee2a                	sd	a0,280(sp)
    1962:	1528                	add	a0,sp,680
    1964:	f22a                	sd	a0,288(sp)
    1966:	0d08                	add	a0,sp,656
    1968:	0a2c                	add	a1,sp,280
    196a:	3f7040ef          	jal	6560 <_ZN5Eigen15PlainObjectBaseINS_6MatrixIdLin1ELin1ELi0ELin1ELin1EEEEC2INS_7ProductIS2_S2_Li0EEEEERKNS_9DenseBaseIT_EE>
    196e:	0004b517          	auipc	a0,0x4b
    1972:	81a53503          	ld	a0,-2022(a0) # 4c188 <_ZSt4cout@GLIBCXX_3.4>
    1976:	00028597          	auipc	a1,0x28
    197a:	fdb58593          	add	a1,a1,-37 # 29951 <_IO_stdin_used+0x69>
    197e:	4639                	li	a2,14
    1980:	c51ff0ef          	jal	15d0 <_ZSt16__ostream_insertIcSt11char_traitsIcEERSt13basic_ostreamIT_T0_ES6_PKS3_l@plt>
    1984:	0004b517          	auipc	a0,0x4b
    1988:	80453503          	ld	a0,-2044(a0) # 4c188 <_ZSt4cout@GLIBCXX_3.4>
    198c:	0d0c                	add	a1,sp,656
    198e:	465020ef          	jal	45f2 <_ZN5EigenlsINS_6MatrixIdLin1ELin1ELi0ELin1ELin1EEEEERSoS3_RKNS_9DenseBaseIT_EE>
    1992:	842a                	mv	s0,a0
    1994:	6108                	ld	a0,0(a0)
    1996:	fe853503          	ld	a0,-24(a0)
    199a:	9522                	add	a0,a0,s0
    199c:	7964                	ld	s1,240(a0)
    199e:	e099                	bnez	s1,19a4 <_Z16matrixOperationsIdEvv+0x14c>
    19a0:	2500106f          	j	2bf0 <_Z16matrixOperationsIdEvv+0x1398>
    19a4:	0384c503          	lbu	a0,56(s1)
    19a8:	c501                	beqz	a0,19b0 <_Z16matrixOperationsIdEvv+0x158>
    19aa:	0434c583          	lbu	a1,67(s1)
    19ae:	a811                	j	19c2 <_Z16matrixOperationsIdEvv+0x16a>
    19b0:	8526                	mv	a0,s1
    19b2:	c2fff0ef          	jal	15e0 <_ZNKSt5ctypeIcE13_M_widen_initEv@plt>
    19b6:	6088                	ld	a0,0(s1)
    19b8:	7910                	ld	a2,48(a0)
    19ba:	45a9                	li	a1,10
    19bc:	8526                	mv	a0,s1
    19be:	9602                	jalr	a2
    19c0:	85aa                	mv	a1,a0
    19c2:	8522                	mv	a0,s0
    19c4:	b2dff0ef          	jal	14f0 <_ZNSo3putEc@plt>
    19c8:	bb9ff0ef          	jal	1580 <_ZNSo5flushEv@plt>
    19cc:	2c813503          	ld	a0,712(sp)
    19d0:	2b013583          	ld	a1,688(sp)
    19d4:	0590                	add	a2,sp,704
    19d6:	ee32                	sd	a2,280(sp)
    19d8:	1530                	add	a2,sp,680
    19da:	f232                	sd	a2,288(sp)
    19dc:	00b50463          	beq	a0,a1,19e4 <_Z16matrixOperationsIdEvv+0x18c>
    19e0:	0880106f          	j	2a68 <_Z16matrixOperationsIdEvv+0x1210>
    19e4:	2d013503          	ld	a0,720(sp)
    19e8:	2b813583          	ld	a1,696(sp)
    19ec:	00b50463          	beq	a0,a1,19f4 <_Z16matrixOperationsIdEvv+0x19c>
    19f0:	0780106f          	j	2a68 <_Z16matrixOperationsIdEvv+0x1210>
    19f4:	1ca8                	add	a0,sp,632
    19f6:	0a2c                	add	a1,sp,280
    19f8:	550060ef          	jal	7f48 <_ZN5Eigen15PlainObjectBaseINS_6MatrixIdLin1ELin1ELi0ELin1ELin1EEEEC2INS_13CwiseBinaryOpINS_8internal13scalar_sum_opIddEEKS2_S9_EEEERKNS_9DenseBaseIT_EE>
    19fc:	0004a517          	auipc	a0,0x4a
    1a00:	78c53503          	ld	a0,1932(a0) # 4c188 <_ZSt4cout@GLIBCXX_3.4>
    1a04:	00028597          	auipc	a1,0x28
    1a08:	f5c58593          	add	a1,a1,-164 # 29960 <_IO_stdin_used+0x78>
    1a0c:	467d                	li	a2,31
    1a0e:	bc3ff0ef          	jal	15d0 <_ZSt16__ostream_insertIcSt11char_traitsIcEERSt13basic_ostreamIT_T0_ES6_PKS3_l@plt>
    1a12:	0004a517          	auipc	a0,0x4a
    1a16:	77653503          	ld	a0,1910(a0) # 4c188 <_ZSt4cout@GLIBCXX_3.4>
    1a1a:	1cac                	add	a1,sp,632
    1a1c:	3d7020ef          	jal	45f2 <_ZN5EigenlsINS_6MatrixIdLin1ELin1ELi0ELin1ELin1EEEEERSoS3_RKNS_9DenseBaseIT_EE>
    1a20:	842a                	mv	s0,a0
    1a22:	6108                	ld	a0,0(a0)
    1a24:	fe853503          	ld	a0,-24(a0)
    1a28:	9522                	add	a0,a0,s0
    1a2a:	7964                	ld	s1,240(a0)
    1a2c:	e099                	bnez	s1,1a32 <_Z16matrixOperationsIdEvv+0x1da>
    1a2e:	1c60106f          	j	2bf4 <_Z16matrixOperationsIdEvv+0x139c>
    1a32:	0384c503          	lbu	a0,56(s1)
    1a36:	c501                	beqz	a0,1a3e <_Z16matrixOperationsIdEvv+0x1e6>
    1a38:	0434c583          	lbu	a1,67(s1)
    1a3c:	a811                	j	1a50 <_Z16matrixOperationsIdEvv+0x1f8>
    1a3e:	8526                	mv	a0,s1
    1a40:	ba1ff0ef          	jal	15e0 <_ZNKSt5ctypeIcE13_M_widen_initEv@plt>
    1a44:	6088                	ld	a0,0(s1)
    1a46:	7910                	ld	a2,48(a0)
    1a48:	45a9                	li	a1,10
    1a4a:	8526                	mv	a0,s1
    1a4c:	9602                	jalr	a2
    1a4e:	85aa                	mv	a1,a0
    1a50:	8522                	mv	a0,s0
    1a52:	a9fff0ef          	jal	14f0 <_ZNSo3putEc@plt>
    1a56:	b2bff0ef          	jal	1580 <_ZNSo5flushEv@plt>
    1a5a:	2c813503          	ld	a0,712(sp)
    1a5e:	2b013583          	ld	a1,688(sp)
    1a62:	0590                	add	a2,sp,704
    1a64:	ee32                	sd	a2,280(sp)
    1a66:	1530                	add	a2,sp,680
    1a68:	f232                	sd	a2,288(sp)
    1a6a:	00b50463          	beq	a0,a1,1a72 <_Z16matrixOperationsIdEvv+0x21a>
    1a6e:	01a0106f          	j	2a88 <_Z16matrixOperationsIdEvv+0x1230>
    1a72:	2d013503          	ld	a0,720(sp)
    1a76:	2b813583          	ld	a1,696(sp)
    1a7a:	00b50463          	beq	a0,a1,1a82 <_Z16matrixOperationsIdEvv+0x22a>
    1a7e:	00a0106f          	j	2a88 <_Z16matrixOperationsIdEvv+0x1230>
    1a82:	1488                	add	a0,sp,608
    1a84:	0a2c                	add	a1,sp,280
    1a86:	6f6060ef          	jal	817c <_ZN5Eigen15PlainObjectBaseINS_6MatrixIdLin1ELin1ELi0ELin1ELin1EEEEC2INS_13CwiseBinaryOpINS_8internal20scalar_difference_opIddEEKS2_S9_EEEERKNS_9DenseBaseIT_EE>
    1a8a:	0004a517          	auipc	a0,0x4a
    1a8e:	6fe53503          	ld	a0,1790(a0) # 4c188 <_ZSt4cout@GLIBCXX_3.4>
    1a92:	00028597          	auipc	a1,0x28
    1a96:	eee58593          	add	a1,a1,-274 # 29980 <_IO_stdin_used+0x98>
    1a9a:	02200613          	li	a2,34
    1a9e:	b33ff0ef          	jal	15d0 <_ZSt16__ostream_insertIcSt11char_traitsIcEERSt13basic_ostreamIT_T0_ES6_PKS3_l@plt>
    1aa2:	0004a517          	auipc	a0,0x4a
    1aa6:	6e653503          	ld	a0,1766(a0) # 4c188 <_ZSt4cout@GLIBCXX_3.4>
    1aaa:	148c                	add	a1,sp,608
    1aac:	347020ef          	jal	45f2 <_ZN5EigenlsINS_6MatrixIdLin1ELin1ELi0ELin1ELin1EEEEERSoS3_RKNS_9DenseBaseIT_EE>
    1ab0:	842a                	mv	s0,a0
    1ab2:	6108                	ld	a0,0(a0)
    1ab4:	fe853503          	ld	a0,-24(a0)
    1ab8:	9522                	add	a0,a0,s0
    1aba:	7964                	ld	s1,240(a0)
    1abc:	e099                	bnez	s1,1ac2 <_Z16matrixOperationsIdEvv+0x26a>
    1abe:	13a0106f          	j	2bf8 <_Z16matrixOperationsIdEvv+0x13a0>
    1ac2:	0384c503          	lbu	a0,56(s1)
    1ac6:	c501                	beqz	a0,1ace <_Z16matrixOperationsIdEvv+0x276>
    1ac8:	0434c583          	lbu	a1,67(s1)
    1acc:	a811                	j	1ae0 <_Z16matrixOperationsIdEvv+0x288>
    1ace:	8526                	mv	a0,s1
    1ad0:	b11ff0ef          	jal	15e0 <_ZNKSt5ctypeIcE13_M_widen_initEv@plt>
    1ad4:	6088                	ld	a0,0(s1)
    1ad6:	7910                	ld	a2,48(a0)
    1ad8:	45a9                	li	a1,10
    1ada:	8526                	mv	a0,s1
    1adc:	9602                	jalr	a2
    1ade:	85aa                	mv	a1,a0
    1ae0:	8522                	mv	a0,s0
    1ae2:	a0fff0ef          	jal	14f0 <_ZNSo3putEc@plt>
    1ae6:	a9bff0ef          	jal	1580 <_ZNSo5flushEv@plt>
    1aea:	2c813503          	ld	a0,712(sp)
    1aee:	2b013583          	ld	a1,688(sp)
    1af2:	0590                	add	a2,sp,704
    1af4:	ee32                	sd	a2,280(sp)
    1af6:	1530                	add	a2,sp,680
    1af8:	f232                	sd	a2,288(sp)
    1afa:	00b50463          	beq	a0,a1,1b02 <_Z16matrixOperationsIdEvv+0x2aa>
    1afe:	7ab0006f          	j	2aa8 <_Z16matrixOperationsIdEvv+0x1250>
    1b02:	2d013503          	ld	a0,720(sp)
    1b06:	2b813583          	ld	a1,696(sp)
    1b0a:	00b50463          	beq	a0,a1,1b12 <_Z16matrixOperationsIdEvv+0x2ba>
    1b0e:	79b0006f          	j	2aa8 <_Z16matrixOperationsIdEvv+0x1250>
    1b12:	04a8                	add	a0,sp,584
    1b14:	0a2c                	add	a1,sp,280
    1b16:	09b060ef          	jal	83b0 <_ZN5Eigen15PlainObjectBaseINS_6MatrixIdLin1ELin1ELi0ELin1ELin1EEEEC2INS_13CwiseBinaryOpINS_8internal17scalar_product_opIddEEKNS_12ArrayWrapperIS2_EESB_EEEERKNS_9DenseBaseIT_EE>
    1b1a:	0004a517          	auipc	a0,0x4a
    1b1e:	66e53503          	ld	a0,1646(a0) # 4c188 <_ZSt4cout@GLIBCXX_3.4>
    1b22:	00028597          	auipc	a1,0x28
    1b26:	e8158593          	add	a1,a1,-383 # 299a3 <_IO_stdin_used+0xbb>
    1b2a:	02500613          	li	a2,37
    1b2e:	aa3ff0ef          	jal	15d0 <_ZSt16__ostream_insertIcSt11char_traitsIcEERSt13basic_ostreamIT_T0_ES6_PKS3_l@plt>
    1b32:	0004a517          	auipc	a0,0x4a
    1b36:	65653503          	ld	a0,1622(a0) # 4c188 <_ZSt4cout@GLIBCXX_3.4>
    1b3a:	04ac                	add	a1,sp,584
    1b3c:	2b7020ef          	jal	45f2 <_ZN5EigenlsINS_6MatrixIdLin1ELin1ELi0ELin1ELin1EEEEERSoS3_RKNS_9DenseBaseIT_EE>
    1b40:	842a                	mv	s0,a0
    1b42:	6108                	ld	a0,0(a0)
    1b44:	fe853503          	ld	a0,-24(a0)
    1b48:	9522                	add	a0,a0,s0
    1b4a:	7964                	ld	s1,240(a0)
    1b4c:	e099                	bnez	s1,1b52 <_Z16matrixOperationsIdEvv+0x2fa>
    1b4e:	0ae0106f          	j	2bfc <_Z16matrixOperationsIdEvv+0x13a4>
    1b52:	0384c503          	lbu	a0,56(s1)
    1b56:	c501                	beqz	a0,1b5e <_Z16matrixOperationsIdEvv+0x306>
    1b58:	0434c583          	lbu	a1,67(s1)
    1b5c:	a811                	j	1b70 <_Z16matrixOperationsIdEvv+0x318>
    1b5e:	8526                	mv	a0,s1
    1b60:	a81ff0ef          	jal	15e0 <_ZNKSt5ctypeIcE13_M_widen_initEv@plt>
    1b64:	6088                	ld	a0,0(s1)
    1b66:	7910                	ld	a2,48(a0)
    1b68:	45a9                	li	a1,10
    1b6a:	8526                	mv	a0,s1
    1b6c:	9602                	jalr	a2
    1b6e:	85aa                	mv	a1,a0
    1b70:	8522                	mv	a0,s0
    1b72:	97fff0ef          	jal	14f0 <_ZNSo3putEc@plt>
    1b76:	a0bff0ef          	jal	1580 <_ZNSo5flushEv@plt>
    1b7a:	2c813503          	ld	a0,712(sp)
    1b7e:	2b013583          	ld	a1,688(sp)
    1b82:	0590                	add	a2,sp,704
    1b84:	f132                	sd	a2,160(sp)
    1b86:	1530                	add	a2,sp,680
    1b88:	f532                	sd	a2,168(sp)
    1b8a:	00b50463          	beq	a0,a1,1b92 <_Z16matrixOperationsIdEvv+0x33a>
    1b8e:	73b0006f          	j	2ac8 <_Z16matrixOperationsIdEvv+0x1270>
    1b92:	2d013503          	ld	a0,720(sp)
    1b96:	2b813583          	ld	a1,696(sp)
    1b9a:	00b50463          	beq	a0,a1,1ba2 <_Z16matrixOperationsIdEvv+0x34a>
    1b9e:	72b0006f          	j	2ac8 <_Z16matrixOperationsIdEvv+0x1270>
    1ba2:	0a28                	add	a0,sp,280
    1ba4:	110c                	add	a1,sp,160
    1ba6:	23f060ef          	jal	85e4 <_ZN5Eigen15PlainObjectBaseINS_6MatrixIdLin1ELin1ELi0ELin1ELin1EEEEC2INS_13CwiseBinaryOpINS_8internal18scalar_quotient_opIddEEKNS_12ArrayWrapperIS2_EESB_EEEERKNS_9DenseBaseIT_EE>
    1baa:	0004a517          	auipc	a0,0x4a
    1bae:	5de53503          	ld	a0,1502(a0) # 4c188 <_ZSt4cout@GLIBCXX_3.4>
    1bb2:	00028597          	auipc	a1,0x28
    1bb6:	e1758593          	add	a1,a1,-489 # 299c9 <_IO_stdin_used+0xe1>
    1bba:	467d                	li	a2,31
    1bbc:	a15ff0ef          	jal	15d0 <_ZSt16__ostream_insertIcSt11char_traitsIcEERSt13basic_ostreamIT_T0_ES6_PKS3_l@plt>
    1bc0:	0004a517          	auipc	a0,0x4a
    1bc4:	5c853503          	ld	a0,1480(a0) # 4c188 <_ZSt4cout@GLIBCXX_3.4>
    1bc8:	0a2c                	add	a1,sp,280
    1bca:	229020ef          	jal	45f2 <_ZN5EigenlsINS_6MatrixIdLin1ELin1ELi0ELin1ELin1EEEEERSoS3_RKNS_9DenseBaseIT_EE>
    1bce:	842a                	mv	s0,a0
    1bd0:	6108                	ld	a0,0(a0)
    1bd2:	fe853503          	ld	a0,-24(a0)
    1bd6:	9522                	add	a0,a0,s0
    1bd8:	7964                	ld	s1,240(a0)
    1bda:	e099                	bnez	s1,1be0 <_Z16matrixOperationsIdEvv+0x388>
    1bdc:	0240106f          	j	2c00 <_Z16matrixOperationsIdEvv+0x13a8>
    1be0:	0384c503          	lbu	a0,56(s1)
    1be4:	c501                	beqz	a0,1bec <_Z16matrixOperationsIdEvv+0x394>
    1be6:	0434c583          	lbu	a1,67(s1)
    1bea:	a811                	j	1bfe <_Z16matrixOperationsIdEvv+0x3a6>
    1bec:	8526                	mv	a0,s1
    1bee:	9f3ff0ef          	jal	15e0 <_ZNKSt5ctypeIcE13_M_widen_initEv@plt>
    1bf2:	6088                	ld	a0,0(s1)
    1bf4:	7910                	ld	a2,48(a0)
    1bf6:	45a9                	li	a1,10
    1bf8:	8526                	mv	a0,s1
    1bfa:	9602                	jalr	a2
    1bfc:	85aa                	mv	a1,a0
    1bfe:	8522                	mv	a0,s0
    1c00:	8f1ff0ef          	jal	14f0 <_ZNSo3putEc@plt>
    1c04:	97dff0ef          	jal	1580 <_ZNSo5flushEv@plt>
    1c08:	6572                	ld	a0,280(sp)
    1c0a:	9e7ff0ef          	jal	15f0 <free@plt>
    1c0e:	2c813503          	ld	a0,712(sp)
    1c12:	2b013583          	ld	a1,688(sp)
    1c16:	0590                	add	a2,sp,704
    1c18:	ee32                	sd	a2,280(sp)
    1c1a:	1530                	add	a2,sp,680
    1c1c:	f232                	sd	a2,288(sp)
    1c1e:	00b50463          	beq	a0,a1,1c26 <_Z16matrixOperationsIdEvv+0x3ce>
    1c22:	6c70006f          	j	2ae8 <_Z16matrixOperationsIdEvv+0x1290>
    1c26:	2d013503          	ld	a0,720(sp)
    1c2a:	2b813583          	ld	a1,696(sp)
    1c2e:	00b50463          	beq	a0,a1,1c36 <_Z16matrixOperationsIdEvv+0x3de>
    1c32:	6b70006f          	j	2ae8 <_Z16matrixOperationsIdEvv+0x1290>
    1c36:	1c08                	add	a0,sp,560
    1c38:	0a2c                	add	a1,sp,280
    1c3a:	3df060ef          	jal	8818 <_ZN5Eigen15PlainObjectBaseINS_6MatrixIdLin1ELin1ELi0ELin1ELin1EEEEC2INS_13CwiseBinaryOpINS_8internal13scalar_min_opIddEEKNS_12ArrayWrapperIS2_EESB_EEEERKNS_9DenseBaseIT_EE>
    1c3e:	0004a517          	auipc	a0,0x4a
    1c42:	54a53503          	ld	a0,1354(a0) # 4c188 <_ZSt4cout@GLIBCXX_3.4>
    1c46:	00028597          	auipc	a1,0x28
    1c4a:	da358593          	add	a1,a1,-605 # 299e9 <_IO_stdin_used+0x101>
    1c4e:	02200613          	li	a2,34
    1c52:	97fff0ef          	jal	15d0 <_ZSt16__ostream_insertIcSt11char_traitsIcEERSt13basic_ostreamIT_T0_ES6_PKS3_l@plt>
    1c56:	0004a517          	auipc	a0,0x4a
    1c5a:	53253503          	ld	a0,1330(a0) # 4c188 <_ZSt4cout@GLIBCXX_3.4>
    1c5e:	1c0c                	add	a1,sp,560
    1c60:	193020ef          	jal	45f2 <_ZN5EigenlsINS_6MatrixIdLin1ELin1ELi0ELin1ELin1EEEEERSoS3_RKNS_9DenseBaseIT_EE>
    1c64:	842a                	mv	s0,a0
    1c66:	6108                	ld	a0,0(a0)
    1c68:	fe853503          	ld	a0,-24(a0)
    1c6c:	9522                	add	a0,a0,s0
    1c6e:	7964                	ld	s1,240(a0)
    1c70:	e099                	bnez	s1,1c76 <_Z16matrixOperationsIdEvv+0x41e>
    1c72:	7930006f          	j	2c04 <_Z16matrixOperationsIdEvv+0x13ac>
    1c76:	0384c503          	lbu	a0,56(s1)
    1c7a:	c501                	beqz	a0,1c82 <_Z16matrixOperationsIdEvv+0x42a>
    1c7c:	0434c583          	lbu	a1,67(s1)
    1c80:	a811                	j	1c94 <_Z16matrixOperationsIdEvv+0x43c>
    1c82:	8526                	mv	a0,s1
    1c84:	95dff0ef          	jal	15e0 <_ZNKSt5ctypeIcE13_M_widen_initEv@plt>
    1c88:	6088                	ld	a0,0(s1)
    1c8a:	7910                	ld	a2,48(a0)
    1c8c:	45a9                	li	a1,10
    1c8e:	8526                	mv	a0,s1
    1c90:	9602                	jalr	a2
    1c92:	85aa                	mv	a1,a0
    1c94:	8522                	mv	a0,s0
    1c96:	85bff0ef          	jal	14f0 <_ZNSo3putEc@plt>
    1c9a:	8e7ff0ef          	jal	1580 <_ZNSo5flushEv@plt>
    1c9e:	2c813503          	ld	a0,712(sp)
    1ca2:	2b013583          	ld	a1,688(sp)
    1ca6:	0590                	add	a2,sp,704
    1ca8:	ee32                	sd	a2,280(sp)
    1caa:	1530                	add	a2,sp,680
    1cac:	f232                	sd	a2,288(sp)
    1cae:	00b50463          	beq	a0,a1,1cb6 <_Z16matrixOperationsIdEvv+0x45e>
    1cb2:	6570006f          	j	2b08 <_Z16matrixOperationsIdEvv+0x12b0>
    1cb6:	2d013503          	ld	a0,720(sp)
    1cba:	2b813583          	ld	a1,696(sp)
    1cbe:	00b50463          	beq	a0,a1,1cc6 <_Z16matrixOperationsIdEvv+0x46e>
    1cc2:	6470006f          	j	2b08 <_Z16matrixOperationsIdEvv+0x12b0>
    1cc6:	0c28                	add	a0,sp,536
    1cc8:	0a2c                	add	a1,sp,280
    1cca:	583060ef          	jal	8a4c <_ZN5Eigen15PlainObjectBaseINS_6MatrixIdLin1ELin1ELi0ELin1ELin1EEEEC2INS_13CwiseBinaryOpINS_8internal13scalar_max_opIddEEKNS_12ArrayWrapperIS2_EESB_EEEERKNS_9DenseBaseIT_EE>
    1cce:	0004a517          	auipc	a0,0x4a
    1cd2:	4ba53503          	ld	a0,1210(a0) # 4c188 <_ZSt4cout@GLIBCXX_3.4>
    1cd6:	00028597          	auipc	a1,0x28
    1cda:	d3658593          	add	a1,a1,-714 # 29a0c <_IO_stdin_used+0x124>
    1cde:	02200613          	li	a2,34
    1ce2:	8efff0ef          	jal	15d0 <_ZSt16__ostream_insertIcSt11char_traitsIcEERSt13basic_ostreamIT_T0_ES6_PKS3_l@plt>
    1ce6:	0004a517          	auipc	a0,0x4a
    1cea:	4a253503          	ld	a0,1186(a0) # 4c188 <_ZSt4cout@GLIBCXX_3.4>
    1cee:	0c2c                	add	a1,sp,536
    1cf0:	103020ef          	jal	45f2 <_ZN5EigenlsINS_6MatrixIdLin1ELin1ELi0ELin1ELin1EEEEERSoS3_RKNS_9DenseBaseIT_EE>
    1cf4:	842a                	mv	s0,a0
    1cf6:	6108                	ld	a0,0(a0)
    1cf8:	fe853503          	ld	a0,-24(a0)
    1cfc:	9522                	add	a0,a0,s0
    1cfe:	7964                	ld	s1,240(a0)
    1d00:	e099                	bnez	s1,1d06 <_Z16matrixOperationsIdEvv+0x4ae>
    1d02:	7070006f          	j	2c08 <_Z16matrixOperationsIdEvv+0x13b0>
    1d06:	0384c503          	lbu	a0,56(s1)
    1d0a:	c501                	beqz	a0,1d12 <_Z16matrixOperationsIdEvv+0x4ba>
    1d0c:	0434c583          	lbu	a1,67(s1)
    1d10:	a811                	j	1d24 <_Z16matrixOperationsIdEvv+0x4cc>
    1d12:	8526                	mv	a0,s1
    1d14:	8cdff0ef          	jal	15e0 <_ZNKSt5ctypeIcE13_M_widen_initEv@plt>
    1d18:	6088                	ld	a0,0(s1)
    1d1a:	7910                	ld	a2,48(a0)
    1d1c:	45a9                	li	a1,10
    1d1e:	8526                	mv	a0,s1
    1d20:	9602                	jalr	a2
    1d22:	85aa                	mv	a1,a0
    1d24:	8522                	mv	a0,s0
    1d26:	fcaff0ef          	jal	14f0 <_ZNSo3putEc@plt>
    1d2a:	857ff0ef          	jal	1580 <_ZNSo5flushEv@plt>
    1d2e:	0588                	add	a0,sp,704
    1d30:	ee2a                	sd	a0,280(sp)
    1d32:	0408                	add	a0,sp,512
    1d34:	0a2c                	add	a1,sp,280
    1d36:	74b060ef          	jal	8c80 <_ZN5Eigen15PlainObjectBaseINS_6MatrixIdLin1ELin1ELi0ELin1ELin1EEEEC2INS_9TransposeIS2_EEEERKNS_9DenseBaseIT_EE>
    1d3a:	0004a517          	auipc	a0,0x4a
    1d3e:	44e53503          	ld	a0,1102(a0) # 4c188 <_ZSt4cout@GLIBCXX_3.4>
    1d42:	00028597          	auipc	a1,0x28
    1d46:	ced58593          	add	a1,a1,-787 # 29a2f <_IO_stdin_used+0x147>
    1d4a:	4641                	li	a2,16
    1d4c:	885ff0ef          	jal	15d0 <_ZSt16__ostream_insertIcSt11char_traitsIcEERSt13basic_ostreamIT_T0_ES6_PKS3_l@plt>
    1d50:	0004a517          	auipc	a0,0x4a
    1d54:	43853503          	ld	a0,1080(a0) # 4c188 <_ZSt4cout@GLIBCXX_3.4>
    1d58:	040c                	add	a1,sp,512
    1d5a:	099020ef          	jal	45f2 <_ZN5EigenlsINS_6MatrixIdLin1ELin1ELi0ELin1ELin1EEEEERSoS3_RKNS_9DenseBaseIT_EE>
    1d5e:	842a                	mv	s0,a0
    1d60:	6108                	ld	a0,0(a0)
    1d62:	fe853503          	ld	a0,-24(a0)
    1d66:	9522                	add	a0,a0,s0
    1d68:	7964                	ld	s1,240(a0)
    1d6a:	e099                	bnez	s1,1d70 <_Z16matrixOperationsIdEvv+0x518>
    1d6c:	6a10006f          	j	2c0c <_Z16matrixOperationsIdEvv+0x13b4>
    1d70:	0384c503          	lbu	a0,56(s1)
    1d74:	c501                	beqz	a0,1d7c <_Z16matrixOperationsIdEvv+0x524>
    1d76:	0434c583          	lbu	a1,67(s1)
    1d7a:	a811                	j	1d8e <_Z16matrixOperationsIdEvv+0x536>
    1d7c:	8526                	mv	a0,s1
    1d7e:	863ff0ef          	jal	15e0 <_ZNKSt5ctypeIcE13_M_widen_initEv@plt>
    1d82:	6088                	ld	a0,0(s1)
    1d84:	7910                	ld	a2,48(a0)
    1d86:	45a9                	li	a1,10
    1d88:	8526                	mv	a0,s1
    1d8a:	9602                	jalr	a2
    1d8c:	85aa                	mv	a1,a0
    1d8e:	8522                	mv	a0,s0
    1d90:	f60ff0ef          	jal	14f0 <_ZNSo3putEc@plt>
    1d94:	fecff0ef          	jal	1580 <_ZNSo5flushEv@plt>
    1d98:	2c813503          	ld	a0,712(sp)
    1d9c:	2d013583          	ld	a1,720(sp)
    1da0:	0eb51663          	bne	a0,a1,1e8c <_Z16matrixOperationsIdEvv+0x634>
    1da4:	0588                	add	a0,sp,704
    1da6:	166070ef          	jal	8f0c <_ZN5Eigen8internal16determinant_implINS_6MatrixIdLin1ELin1ELi0ELin1ELin1EEELin1EE3runERKS3_>
    1daa:	f20007d3          	fmv.d.x	fa5,zero
    1dae:	a2f52553          	feq.d	a0,fa0,fa5
    1db2:	e125                	bnez	a0,1e12 <_Z16matrixOperationsIdEvv+0x5ba>
    1db4:	2c813503          	ld	a0,712(sp)
    1db8:	2d013583          	ld	a1,720(sp)
    1dbc:	00b50463          	beq	a0,a1,1dc4 <_Z16matrixOperationsIdEvv+0x56c>
    1dc0:	7d50006f          	j	2d94 <_Z16matrixOperationsIdEvv+0x153c>
    1dc4:	0588                	add	a0,sp,704
    1dc6:	f12a                	sd	a0,160(sp)
    1dc8:	0a28                	add	a0,sp,280
    1dca:	110c                	add	a1,sp,160
    1dcc:	3d00a0ef          	jal	c19c <_ZN5Eigen15PlainObjectBaseINS_6MatrixIdLin1ELin1ELi0ELin1ELin1EEEEC2INS_7InverseIS2_EEEERKNS_9DenseBaseIT_EE>
    1dd0:	0004a517          	auipc	a0,0x4a
    1dd4:	3b853503          	ld	a0,952(a0) # 4c188 <_ZSt4cout@GLIBCXX_3.4>
    1dd8:	00028597          	auipc	a1,0x28
    1ddc:	c6858593          	add	a1,a1,-920 # 29a40 <_IO_stdin_used+0x158>
    1de0:	4639                	li	a2,14
    1de2:	feeff0ef          	jal	15d0 <_ZSt16__ostream_insertIcSt11char_traitsIcEERSt13basic_ostreamIT_T0_ES6_PKS3_l@plt>
    1de6:	0004a517          	auipc	a0,0x4a
    1dea:	3a253503          	ld	a0,930(a0) # 4c188 <_ZSt4cout@GLIBCXX_3.4>
    1dee:	0a2c                	add	a1,sp,280
    1df0:	003020ef          	jal	45f2 <_ZN5EigenlsINS_6MatrixIdLin1ELin1ELi0ELin1ELin1EEEEERSoS3_RKNS_9DenseBaseIT_EE>
    1df4:	842a                	mv	s0,a0
    1df6:	6108                	ld	a0,0(a0)
    1df8:	fe853503          	ld	a0,-24(a0)
    1dfc:	9522                	add	a0,a0,s0
    1dfe:	7964                	ld	s1,240(a0)
    1e00:	e099                	bnez	s1,1e06 <_Z16matrixOperationsIdEvv+0x5ae>
    1e02:	7b30006f          	j	2db4 <_Z16matrixOperationsIdEvv+0x155c>
    1e06:	0384c503          	lbu	a0,56(s1)
    1e0a:	cd15                	beqz	a0,1e46 <_Z16matrixOperationsIdEvv+0x5ee>
    1e0c:	0434c583          	lbu	a1,67(s1)
    1e10:	a0a1                	j	1e58 <_Z16matrixOperationsIdEvv+0x600>
    1e12:	0004a517          	auipc	a0,0x4a
    1e16:	37653403          	ld	s0,886(a0) # 4c188 <_ZSt4cout@GLIBCXX_3.4>
    1e1a:	00028517          	auipc	a0,0x28
    1e1e:	c3550593          	add	a1,a0,-971 # 29a4f <_IO_stdin_used+0x167>
    1e22:	466d                	li	a2,27
    1e24:	8522                	mv	a0,s0
    1e26:	faaff0ef          	jal	15d0 <_ZSt16__ostream_insertIcSt11char_traitsIcEERSt13basic_ostreamIT_T0_ES6_PKS3_l@plt>
    1e2a:	6008                	ld	a0,0(s0)
    1e2c:	fe853503          	ld	a0,-24(a0)
    1e30:	9522                	add	a0,a0,s0
    1e32:	7960                	ld	s0,240(a0)
    1e34:	e019                	bnez	s0,1e3a <_Z16matrixOperationsIdEvv+0x5e2>
    1e36:	7830006f          	j	2db8 <_Z16matrixOperationsIdEvv+0x1560>
    1e3a:	03844503          	lbu	a0,56(s0)
    1e3e:	c515                	beqz	a0,1e6a <_Z16matrixOperationsIdEvv+0x612>
    1e40:	04344583          	lbu	a1,67(s0)
    1e44:	a825                	j	1e7c <_Z16matrixOperationsIdEvv+0x624>
    1e46:	8526                	mv	a0,s1
    1e48:	f98ff0ef          	jal	15e0 <_ZNKSt5ctypeIcE13_M_widen_initEv@plt>
    1e4c:	6088                	ld	a0,0(s1)
    1e4e:	7910                	ld	a2,48(a0)
    1e50:	45a9                	li	a1,10
    1e52:	8526                	mv	a0,s1
    1e54:	9602                	jalr	a2
    1e56:	85aa                	mv	a1,a0
    1e58:	8522                	mv	a0,s0
    1e5a:	e96ff0ef          	jal	14f0 <_ZNSo3putEc@plt>
    1e5e:	f22ff0ef          	jal	1580 <_ZNSo5flushEv@plt>
    1e62:	6572                	ld	a0,280(sp)
    1e64:	f8cff0ef          	jal	15f0 <free@plt>
    1e68:	a015                	j	1e8c <_Z16matrixOperationsIdEvv+0x634>
    1e6a:	8522                	mv	a0,s0
    1e6c:	f74ff0ef          	jal	15e0 <_ZNKSt5ctypeIcE13_M_widen_initEv@plt>
    1e70:	6008                	ld	a0,0(s0)
    1e72:	7910                	ld	a2,48(a0)
    1e74:	45a9                	li	a1,10
    1e76:	8522                	mv	a0,s0
    1e78:	9602                	jalr	a2
    1e7a:	85aa                	mv	a1,a0
    1e7c:	0004a517          	auipc	a0,0x4a
    1e80:	30c53503          	ld	a0,780(a0) # 4c188 <_ZSt4cout@GLIBCXX_3.4>
    1e84:	e6cff0ef          	jal	14f0 <_ZNSo3putEc@plt>
    1e88:	ef8ff0ef          	jal	1580 <_ZNSo5flushEv@plt>
    1e8c:	0a28                	add	a0,sp,280
    1e8e:	058c                	add	a1,sp,704
    1e90:	4605                	li	a2,1
    1e92:	10d020ef          	jal	479e <_ZN5Eigen11EigenSolverINS_6MatrixIdLin1ELin1ELi0ELin1ELin1EEEEC2IS2_EERKNS_9EigenBaseIT_EEb>
    1e96:	14014503          	lbu	a0,320(sp)
    1e9a:	e119                	bnez	a0,1ea0 <_Z16matrixOperationsIdEvv+0x648>
    1e9c:	5750006f          	j	2c10 <_Z16matrixOperationsIdEvv+0x13b8>
    1ea0:	1a08                	add	a0,sp,304
    1ea2:	e62a                	sd	a0,264(sp)
    1ea4:	1108                	add	a0,sp,160
    1ea6:	0a2c                	add	a1,sp,280
    1ea8:	2db020ef          	jal	4982 <_ZNK5Eigen11EigenSolverINS_6MatrixIdLin1ELin1ELi0ELin1ELin1EEEE12eigenvectorsEv>
    1eac:	750a                	ld	a0,160(sp)
    1eae:	f42ff0ef          	jal	15f0 <free@plt>
    1eb2:	0004a517          	auipc	a0,0x4a
    1eb6:	2d653503          	ld	a0,726(a0) # 4c188 <_ZSt4cout@GLIBCXX_3.4>
    1eba:	00028597          	auipc	a1,0x28
    1ebe:	bb158593          	add	a1,a1,-1103 # 29a6b <_IO_stdin_used+0x183>
    1ec2:	4649                	li	a2,18
    1ec4:	f0cff0ef          	jal	15d0 <_ZSt16__ostream_insertIcSt11char_traitsIcEERSt13basic_ostreamIT_T0_ES6_PKS3_l@plt>
    1ec8:	0004a517          	auipc	a0,0x4a
    1ecc:	2c053503          	ld	a0,704(a0) # 4c188 <_ZSt4cout@GLIBCXX_3.4>
    1ed0:	022c                	add	a1,sp,264
    1ed2:	3a0030ef          	jal	5272 <_ZN5EigenlsINS_12CwiseUnaryOpINS_8internal14scalar_real_opISt7complexIdEEEKNS_6MatrixIS5_Lin1ELi1ELi0ELin1ELi1EEEEEEERSoSB_RKNS_9DenseBaseIT_EE>
    1ed6:	842a                	mv	s0,a0
    1ed8:	6108                	ld	a0,0(a0)
    1eda:	fe853503          	ld	a0,-24(a0)
    1ede:	9522                	add	a0,a0,s0
    1ee0:	7964                	ld	s1,240(a0)
    1ee2:	440483e3          	beqz	s1,2b28 <_Z16matrixOperationsIdEvv+0x12d0>
    1ee6:	0384c503          	lbu	a0,56(s1)
    1eea:	c501                	beqz	a0,1ef2 <_Z16matrixOperationsIdEvv+0x69a>
    1eec:	0434c583          	lbu	a1,67(s1)
    1ef0:	a811                	j	1f04 <_Z16matrixOperationsIdEvv+0x6ac>
    1ef2:	8526                	mv	a0,s1
    1ef4:	eecff0ef          	jal	15e0 <_ZNKSt5ctypeIcE13_M_widen_initEv@plt>
    1ef8:	6088                	ld	a0,0(s1)
    1efa:	7910                	ld	a2,48(a0)
    1efc:	45a9                	li	a1,10
    1efe:	8526                	mv	a0,s1
    1f00:	9602                	jalr	a2
    1f02:	85aa                	mv	a1,a0
    1f04:	8522                	mv	a0,s0
    1f06:	deaff0ef          	jal	14f0 <_ZNSo3putEc@plt>
    1f0a:	e76ff0ef          	jal	1580 <_ZNSo5flushEv@plt>
    1f0e:	0004a517          	auipc	a0,0x4a
    1f12:	27a53503          	ld	a0,634(a0) # 4c188 <_ZSt4cout@GLIBCXX_3.4>
    1f16:	00028597          	auipc	a1,0x28
    1f1a:	b6858593          	add	a1,a1,-1176 # 29a7e <_IO_stdin_used+0x196>
    1f1e:	4649                	li	a2,18
    1f20:	eb0ff0ef          	jal	15d0 <_ZSt16__ostream_insertIcSt11char_traitsIcEERSt13basic_ostreamIT_T0_ES6_PKS3_l@plt>
    1f24:	2c813503          	ld	a0,712(sp)
    1f28:	2d013583          	ld	a1,720(sp)
    1f2c:	50b512e3          	bne	a0,a1,2c30 <_Z16matrixOperationsIdEvv+0x13d8>
    1f30:	0588                	add	a0,sp,704
    1f32:	7db060ef          	jal	8f0c <_ZN5Eigen8internal16determinant_implINS_6MatrixIdLin1ELin1ELi0ELin1ELin1EEELin1EE3runERKS3_>
    1f36:	0004a517          	auipc	a0,0x4a
    1f3a:	25253503          	ld	a0,594(a0) # 4c188 <_ZSt4cout@GLIBCXX_3.4>
    1f3e:	f42ff0ef          	jal	1680 <_ZNSo9_M_insertIdEERSoT_@plt>
    1f42:	842a                	mv	s0,a0
    1f44:	6108                	ld	a0,0(a0)
    1f46:	fe853503          	ld	a0,-24(a0)
    1f4a:	9522                	add	a0,a0,s0
    1f4c:	7964                	ld	s1,240(a0)
    1f4e:	3c048de3          	beqz	s1,2b28 <_Z16matrixOperationsIdEvv+0x12d0>
    1f52:	0384c503          	lbu	a0,56(s1)
    1f56:	c501                	beqz	a0,1f5e <_Z16matrixOperationsIdEvv+0x706>
    1f58:	0434c583          	lbu	a1,67(s1)
    1f5c:	a811                	j	1f70 <_Z16matrixOperationsIdEvv+0x718>
    1f5e:	8526                	mv	a0,s1
    1f60:	e80ff0ef          	jal	15e0 <_ZNKSt5ctypeIcE13_M_widen_initEv@plt>
    1f64:	6088                	ld	a0,0(s1)
    1f66:	7910                	ld	a2,48(a0)
    1f68:	45a9                	li	a1,10
    1f6a:	8526                	mv	a0,s1
    1f6c:	9602                	jalr	a2
    1f6e:	85aa                	mv	a1,a0
    1f70:	8522                	mv	a0,s0
    1f72:	d7eff0ef          	jal	14f0 <_ZNSo3putEc@plt>
    1f76:	e0aff0ef          	jal	1580 <_ZNSo5flushEv@plt>
    1f7a:	2d013583          	ld	a1,720(sp)
    1f7e:	2c813503          	ld	a0,712(sp)
    1f82:	00a5e633          	or	a2,a1,a0
    1f86:	4c0645e3          	bltz	a2,2c50 <_Z16matrixOperationsIdEvv+0x13f8>
    1f8a:	00a5c363          	blt	a1,a0,1f90 <_Z16matrixOperationsIdEvv+0x738>
    1f8e:	85aa                	mv	a1,a0
    1f90:	cdc1                	beqz	a1,2028 <_Z16matrixOperationsIdEvv+0x7d0>
    1f92:	2c013303          	ld	t1,704(sp)
    1f96:	00033407          	fld	fs0,0(t1)
    1f9a:	fff58713          	add	a4,a1,-1
    1f9e:	c759                	beqz	a4,202c <_Z16matrixOperationsIdEvv+0x7d4>
    1fa0:	00150893          	add	a7,a0,1
    1fa4:	c2202673          	csrr	a2,vlenb
    1fa8:	00265493          	srl	s1,a2,0x2
    1fac:	4285                	li	t0,1
    1fae:	04976d63          	bltu	a4,s1,2008 <_Z16matrixOperationsIdEvv+0x7b0>
    1fb2:	00365793          	srl	a5,a2,0x3
    1fb6:	00179613          	sll	a2,a5,0x1
    1fba:	40c00633          	neg	a2,a2
    1fbe:	00c77833          	and	a6,a4,a2
    1fc2:	00180293          	add	t0,a6,1
    1fc6:	0d907657          	.insn	4, 0x0d907657
    1fca:	5e003457          	.insn	4, 0x5e003457
    1fce:	09907057          	.insn	4, 0x09907057
    1fd2:	42045457          	.insn	4, 0x42045457
    1fd6:	00389693          	sll	a3,a7,0x3
    1fda:	00d30633          	add	a2,t1,a3
    1fde:	02f887b3          	mul	a5,a7,a5
    1fe2:	0792                	sll	a5,a5,0x4
    1fe4:	8442                	mv	s0,a6
    1fe6:	0d907057          	.insn	4, 0x0d907057
    1fea:	0ad67507          	.insn	4, 0x0ad67507
    1fee:	02a41457          	.insn	4, 0x02a41457
    1ff2:	8c05                	sub	s0,s0,s1
    1ff4:	963e                	add	a2,a2,a5
    1ff6:	f865                	bnez	s0,1fe6 <_Z16matrixOperationsIdEvv+0x78e>
    1ff8:	42006557          	.insn	4, 0x42006557
    1ffc:	06851457          	.insn	4, 0x06851457
    2000:	42801457          	.insn	4, 0x42801457
    2004:	03070463          	beq	a4,a6,202c <_Z16matrixOperationsIdEvv+0x7d4>
    2008:	405585b3          	sub	a1,a1,t0
    200c:	03128633          	mul	a2,t0,a7
    2010:	060e                	sll	a2,a2,0x3
    2012:	00c30433          	add	s0,t1,a2
    2016:	050e                	sll	a0,a0,0x3
    2018:	0521                	add	a0,a0,8
    201a:	201c                	fld	fa5,0(s0)
    201c:	0287f453          	fadd.d	fs0,fa5,fs0
    2020:	15fd                	add	a1,a1,-1
    2022:	942a                	add	s0,s0,a0
    2024:	f9fd                	bnez	a1,201a <_Z16matrixOperationsIdEvv+0x7c2>
    2026:	a019                	j	202c <_Z16matrixOperationsIdEvv+0x7d4>
    2028:	f2000453          	fmv.d.x	fs0,zero
    202c:	0004a517          	auipc	a0,0x4a
    2030:	15c53503          	ld	a0,348(a0) # 4c188 <_ZSt4cout@GLIBCXX_3.4>
    2034:	00028597          	auipc	a1,0x28
    2038:	a5d58593          	add	a1,a1,-1443 # 29a91 <_IO_stdin_used+0x1a9>
    203c:	4631                	li	a2,12
    203e:	d92ff0ef          	jal	15d0 <_ZSt16__ostream_insertIcSt11char_traitsIcEERSt13basic_ostreamIT_T0_ES6_PKS3_l@plt>
    2042:	0004a517          	auipc	a0,0x4a
    2046:	14653503          	ld	a0,326(a0) # 4c188 <_ZSt4cout@GLIBCXX_3.4>
    204a:	22840553          	fmv.d	fa0,fs0
    204e:	e32ff0ef          	jal	1680 <_ZNSo9_M_insertIdEERSoT_@plt>
    2052:	842a                	mv	s0,a0
    2054:	6108                	ld	a0,0(a0)
    2056:	fe853503          	ld	a0,-24(a0)
    205a:	9522                	add	a0,a0,s0
    205c:	7964                	ld	s1,240(a0)
    205e:	400489e3          	beqz	s1,2c70 <_Z16matrixOperationsIdEvv+0x1418>
    2062:	0384c503          	lbu	a0,56(s1)
    2066:	c501                	beqz	a0,206e <_Z16matrixOperationsIdEvv+0x816>
    2068:	0434c583          	lbu	a1,67(s1)
    206c:	a811                	j	2080 <_Z16matrixOperationsIdEvv+0x828>
    206e:	8526                	mv	a0,s1
    2070:	d70ff0ef          	jal	15e0 <_ZNKSt5ctypeIcE13_M_widen_initEv@plt>
    2074:	6088                	ld	a0,0(s1)
    2076:	7910                	ld	a2,48(a0)
    2078:	45a9                	li	a1,10
    207a:	8526                	mv	a0,s1
    207c:	9602                	jalr	a2
    207e:	85aa                	mv	a1,a0
    2080:	8522                	mv	a0,s0
    2082:	c6eff0ef          	jal	14f0 <_ZNSo3putEc@plt>
    2086:	cfaff0ef          	jal	1580 <_ZNSo5flushEv@plt>
    208a:	2c813983          	ld	s3,712(sp)
    208e:	29305fe3          	blez	s3,2b2c <_Z16matrixOperationsIdEvv+0x12d4>
    2092:	2d013903          	ld	s2,720(sp)
    2096:	29205be3          	blez	s2,2b2c <_Z16matrixOperationsIdEvv+0x12d4>
    209a:	2c013803          	ld	a6,704(sp)
    209e:	00083407          	fld	fs0,0(a6)
    20a2:	4589                	li	a1,2
    20a4:	06b9e763          	bltu	s3,a1,2112 <_Z16matrixOperationsIdEvv+0x8ba>
    20a8:	fff98693          	add	a3,s3,-1
    20ac:	c22024f3          	csrr	s1,vlenb
    20b0:	0024d713          	srl	a4,s1,0x2
    20b4:	4605                	li	a2,1
    20b6:	04e6e463          	bltu	a3,a4,20fe <_Z16matrixOperationsIdEvv+0x8a6>
    20ba:	40e00433          	neg	s0,a4
    20be:	8c75                	and	s0,s0,a3
    20c0:	00140613          	add	a2,s0,1
    20c4:	0d907557          	.insn	4, 0x0d907557
    20c8:	5e003457          	.insn	4, 0x5e003457
    20cc:	09907057          	.insn	4, 0x09907057
    20d0:	42045457          	.insn	4, 0x42045457
    20d4:	00880793          	add	a5,a6,8
    20d8:	0486                	sll	s1,s1,0x1
    20da:	8522                	mv	a0,s0
    20dc:	2287f507          	.insn	4, 0x2287f507
    20e0:	0d907057          	.insn	4, 0x0d907057
    20e4:	02a41457          	.insn	4, 0x02a41457
    20e8:	8d19                	sub	a0,a0,a4
    20ea:	97a6                	add	a5,a5,s1
    20ec:	f965                	bnez	a0,20dc <_Z16matrixOperationsIdEvv+0x884>
    20ee:	42006557          	.insn	4, 0x42006557
    20f2:	06851457          	.insn	4, 0x06851457
    20f6:	42801457          	.insn	4, 0x42801457
    20fa:	00868c63          	beq	a3,s0,2112 <_Z16matrixOperationsIdEvv+0x8ba>
    20fe:	40c98533          	sub	a0,s3,a2
    2102:	060e                	sll	a2,a2,0x3
    2104:	9642                	add	a2,a2,a6
    2106:	221c                	fld	fa5,0(a2)
    2108:	0287f453          	fadd.d	fs0,fa5,fs0
    210c:	157d                	add	a0,a0,-1
    210e:	0621                	add	a2,a2,8
    2110:	f97d                	bnez	a0,2106 <_Z16matrixOperationsIdEvv+0x8ae>
    2112:	08b94563          	blt	s2,a1,219c <_Z16matrixOperationsIdEvv+0x944>
    2116:	c2202773          	csrr	a4,vlenb
    211a:	00275593          	srl	a1,a4,0x2
    211e:	00399893          	sll	a7,s3,0x3
    2122:	011802b3          	add	t0,a6,a7
    2126:	0706                	sll	a4,a4,0x1
    2128:	4785                	li	a5,1
    212a:	0d907557          	.insn	4, 0x0d907557
    212e:	5e003457          	.insn	4, 0x5e003457
    2132:	42006557          	.insn	4, 0x42006557
    2136:	844e                	mv	s0,s3
    2138:	a031                	j	2144 <_Z16matrixOperationsIdEvv+0x8ec>
    213a:	0785                	add	a5,a5,1
    213c:	92c6                	add	t0,t0,a7
    213e:	944e                	add	s0,s0,s3
    2140:	05278e63          	beq	a5,s2,219c <_Z16matrixOperationsIdEvv+0x944>
    2144:	00b9f463          	bgeu	s3,a1,214c <_Z16matrixOperationsIdEvv+0x8f4>
    2148:	4601                	li	a2,0
    214a:	a825                	j	2182 <_Z16matrixOperationsIdEvv+0x92a>
    214c:	40b00533          	neg	a0,a1
    2150:	00a9f633          	and	a2,s3,a0
    2154:	09907057          	.insn	4, 0x09907057
    2158:	9e80b657          	.insn	4, 0x9e80b657
    215c:	42045657          	.insn	4, 0x42045657
    2160:	8532                	mv	a0,a2
    2162:	8696                	mv	a3,t0
    2164:	2286f707          	.insn	4, 0x2286f707
    2168:	0d907057          	.insn	4, 0x0d907057
    216c:	02e61657          	.insn	4, 0x02e61657
    2170:	8d0d                	sub	a0,a0,a1
    2172:	96ba                	add	a3,a3,a4
    2174:	f965                	bnez	a0,2164 <_Z16matrixOperationsIdEvv+0x90c>
    2176:	06c515d7          	.insn	4, 0x06c515d7
    217a:	42b01457          	.insn	4, 0x42b01457
    217e:	fac98ee3          	beq	s3,a2,213a <_Z16matrixOperationsIdEvv+0x8e2>
    2182:	40c984b3          	sub	s1,s3,a2
    2186:	9622                	add	a2,a2,s0
    2188:	00361513          	sll	a0,a2,0x3
    218c:	9542                	add	a0,a0,a6
    218e:	211c                	fld	fa5,0(a0)
    2190:	0287f453          	fadd.d	fs0,fa5,fs0
    2194:	14fd                	add	s1,s1,-1
    2196:	0521                	add	a0,a0,8
    2198:	f8fd                	bnez	s1,218e <_Z16matrixOperationsIdEvv+0x936>
    219a:	b745                	j	213a <_Z16matrixOperationsIdEvv+0x8e2>
    219c:	0004a517          	auipc	a0,0x4a
    21a0:	fec53503          	ld	a0,-20(a0) # 4c188 <_ZSt4cout@GLIBCXX_3.4>
    21a4:	00028597          	auipc	a1,0x28
    21a8:	8fa58593          	add	a1,a1,-1798 # 29a9e <_IO_stdin_used+0x1b6>
    21ac:	462d                	li	a2,11
    21ae:	c22ff0ef          	jal	15d0 <_ZSt16__ostream_insertIcSt11char_traitsIcEERSt13basic_ostreamIT_T0_ES6_PKS3_l@plt>
    21b2:	03390533          	mul	a0,s2,s3
    21b6:	d22577d3          	fcvt.d.l	fa5,a0
    21ba:	1af47553          	fdiv.d	fa0,fs0,fa5
    21be:	0004a517          	auipc	a0,0x4a
    21c2:	fca53503          	ld	a0,-54(a0) # 4c188 <_ZSt4cout@GLIBCXX_3.4>
    21c6:	cbaff0ef          	jal	1680 <_ZNSo9_M_insertIdEERSoT_@plt>
    21ca:	842a                	mv	s0,a0
    21cc:	6108                	ld	a0,0(a0)
    21ce:	fe853503          	ld	a0,-24(a0)
    21d2:	9522                	add	a0,a0,s0
    21d4:	7964                	ld	s1,240(a0)
    21d6:	28048fe3          	beqz	s1,2c74 <_Z16matrixOperationsIdEvv+0x141c>
    21da:	0384c503          	lbu	a0,56(s1)
    21de:	c501                	beqz	a0,21e6 <_Z16matrixOperationsIdEvv+0x98e>
    21e0:	0434c583          	lbu	a1,67(s1)
    21e4:	a811                	j	21f8 <_Z16matrixOperationsIdEvv+0x9a0>
    21e6:	8526                	mv	a0,s1
    21e8:	bf8ff0ef          	jal	15e0 <_ZNKSt5ctypeIcE13_M_widen_initEv@plt>
    21ec:	6088                	ld	a0,0(s1)
    21ee:	7910                	ld	a2,48(a0)
    21f0:	45a9                	li	a1,10
    21f2:	8526                	mv	a0,s1
    21f4:	9602                	jalr	a2
    21f6:	85aa                	mv	a1,a0
    21f8:	8522                	mv	a0,s0
    21fa:	af6ff0ef          	jal	14f0 <_ZNSo3putEc@plt>
    21fe:	b82ff0ef          	jal	1580 <_ZNSo5flushEv@plt>
    2202:	2c813283          	ld	t0,712(sp)
    2206:	145053e3          	blez	t0,2b4c <_Z16matrixOperationsIdEvv+0x12f4>
    220a:	2d013883          	ld	a7,720(sp)
    220e:	13105fe3          	blez	a7,2b4c <_Z16matrixOperationsIdEvv+0x12f4>
    2212:	2c013803          	ld	a6,704(sp)
    2216:	00083707          	fld	fa4,0(a6)
    221a:	4509                	li	a0,2
    221c:	22e707d3          	fmv.d	fa5,fa4
    2220:	06a2ea63          	bltu	t0,a0,2294 <_Z16matrixOperationsIdEvv+0xa3c>
    2224:	fff28613          	add	a2,t0,-1
    2228:	c22024f3          	csrr	s1,vlenb
    222c:	0024d593          	srl	a1,s1,0x2
    2230:	4685                	li	a3,1
    2232:	22e707d3          	fmv.d	fa5,fa4
    2236:	04b66463          	bltu	a2,a1,227e <_Z16matrixOperationsIdEvv+0xa26>
    223a:	40b00433          	neg	s0,a1
    223e:	8c71                	and	s0,s0,a2
    2240:	00140693          	add	a3,s0,1
    2244:	0d907757          	.insn	4, 0x0d907757
    2248:	5e003457          	.insn	4, 0x5e003457
    224c:	09907057          	.insn	4, 0x09907057
    2250:	42075457          	.insn	4, 0x42075457
    2254:	00880713          	add	a4,a6,8
    2258:	0486                	sll	s1,s1,0x1
    225a:	87a2                	mv	a5,s0
    225c:	22877507          	.insn	4, 0x22877507
    2260:	0d907057          	.insn	4, 0x0d907057
    2264:	02a41457          	.insn	4, 0x02a41457
    2268:	8f8d                	sub	a5,a5,a1
    226a:	9726                	add	a4,a4,s1
    226c:	fbe5                	bnez	a5,225c <_Z16matrixOperationsIdEvv+0xa04>
    226e:	42006557          	.insn	4, 0x42006557
    2272:	06851457          	.insn	4, 0x06851457
    2276:	428017d7          	.insn	4, 0x428017d7
    227a:	00860d63          	beq	a2,s0,2294 <_Z16matrixOperationsIdEvv+0xa3c>
    227e:	40d285b3          	sub	a1,t0,a3
    2282:	00369613          	sll	a2,a3,0x3
    2286:	9642                	add	a2,a2,a6
    2288:	2214                	fld	fa3,0(a2)
    228a:	02f6f7d3          	fadd.d	fa5,fa3,fa5
    228e:	15fd                	add	a1,a1,-1
    2290:	0621                	add	a2,a2,8
    2292:	f9fd                	bnez	a1,2288 <_Z16matrixOperationsIdEvv+0xa30>
    2294:	08a8c463          	blt	a7,a0,231c <_Z16matrixOperationsIdEvv+0xac4>
    2298:	c22024f3          	csrr	s1,vlenb
    229c:	0024d693          	srl	a3,s1,0x2
    22a0:	00329313          	sll	t1,t0,0x3
    22a4:	00680633          	add	a2,a6,t1
    22a8:	0486                	sll	s1,s1,0x1
    22aa:	4405                	li	s0,1
    22ac:	0d907557          	.insn	4, 0x0d907557
    22b0:	5e003457          	.insn	4, 0x5e003457
    22b4:	42006557          	.insn	4, 0x42006557
    22b8:	8516                	mv	a0,t0
    22ba:	a031                	j	22c6 <_Z16matrixOperationsIdEvv+0xa6e>
    22bc:	0405                	add	s0,s0,1
    22be:	961a                	add	a2,a2,t1
    22c0:	9516                	add	a0,a0,t0
    22c2:	05140d63          	beq	s0,a7,231c <_Z16matrixOperationsIdEvv+0xac4>
    22c6:	00d2f463          	bgeu	t0,a3,22ce <_Z16matrixOperationsIdEvv+0xa76>
    22ca:	4581                	li	a1,0
    22cc:	a825                	j	2304 <_Z16matrixOperationsIdEvv+0xaac>
    22ce:	40d005b3          	neg	a1,a3
    22d2:	00b2f5b3          	and	a1,t0,a1
    22d6:	09907057          	.insn	4, 0x09907057
    22da:	9e80b657          	.insn	4, 0x9e80b657
    22de:	4207d657          	.insn	4, 0x4207d657
    22e2:	872e                	mv	a4,a1
    22e4:	87b2                	mv	a5,a2
    22e6:	2287f707          	.insn	4, 0x2287f707
    22ea:	0d907057          	.insn	4, 0x0d907057
    22ee:	02e61657          	.insn	4, 0x02e61657
    22f2:	8f15                	sub	a4,a4,a3
    22f4:	97a6                	add	a5,a5,s1
    22f6:	fb65                	bnez	a4,22e6 <_Z16matrixOperationsIdEvv+0xa8e>
    22f8:	06c515d7          	.insn	4, 0x06c515d7
    22fc:	42b017d7          	.insn	4, 0x42b017d7
    2300:	fab28ee3          	beq	t0,a1,22bc <_Z16matrixOperationsIdEvv+0xa64>
    2304:	40b28733          	sub	a4,t0,a1
    2308:	95aa                	add	a1,a1,a0
    230a:	058e                	sll	a1,a1,0x3
    230c:	95c2                	add	a1,a1,a6
    230e:	2194                	fld	fa3,0(a1)
    2310:	02f6f7d3          	fadd.d	fa5,fa3,fa5
    2314:	177d                	add	a4,a4,-1
    2316:	05a1                	add	a1,a1,8
    2318:	fb7d                	bnez	a4,230e <_Z16matrixOperationsIdEvv+0xab6>
    231a:	b74d                	j	22bc <_Z16matrixOperationsIdEvv+0xa64>
    231c:	0058e533          	or	a0,a7,t0
    2320:	14054ce3          	bltz	a0,2c78 <_Z16matrixOperationsIdEvv+0x1420>
    2324:	02588533          	mul	a0,a7,t0
    2328:	d22576d3          	fcvt.d.l	fa3,a0
    232c:	4509                	li	a0,2
    232e:	22e72753          	fabs.d	fa4,fa4
    2332:	06a2e963          	bltu	t0,a0,23a4 <_Z16matrixOperationsIdEvv+0xb4c>
    2336:	fff28693          	add	a3,t0,-1
    233a:	c22024f3          	csrr	s1,vlenb
    233e:	0024d793          	srl	a5,s1,0x2
    2342:	4605                	li	a2,1
    2344:	04f6e463          	bltu	a3,a5,238c <_Z16matrixOperationsIdEvv+0xb34>
    2348:	40f00433          	neg	s0,a5
    234c:	8c75                	and	s0,s0,a3
    234e:	00140613          	add	a2,s0,1
    2352:	0d9075d7          	.insn	4, 0x0d9075d7
    2356:	5e075457          	.insn	4, 0x5e075457
    235a:	00880713          	add	a4,a6,8
    235e:	0486                	sll	s1,s1,0x1
    2360:	85a2                	mv	a1,s0
    2362:	22877507          	.insn	4, 0x22877507
    2366:	2aa51557          	.insn	4, 0x2aa51557
    236a:	1a851457          	.insn	4, 0x1a851457
    236e:	8d9d                	sub	a1,a1,a5
    2370:	9726                	add	a4,a4,s1
    2372:	f9e5                	bnez	a1,2362 <_Z16matrixOperationsIdEvv+0xb0a>
    2374:	0004a597          	auipc	a1,0x4a
    2378:	e445b707          	fld	fa4,-444(a1) # 4c1b8 <__SDATA_BEGIN__>
    237c:	42075557          	.insn	4, 0x42075557
    2380:	1e851457          	.insn	4, 0x1e851457
    2384:	42801757          	.insn	4, 0x42801757
    2388:	00868e63          	beq	a3,s0,23a4 <_Z16matrixOperationsIdEvv+0xb4c>
    238c:	40c285b3          	sub	a1,t0,a2
    2390:	060e                	sll	a2,a2,0x3
    2392:	9642                	add	a2,a2,a6
    2394:	2210                	fld	fa2,0(a2)
    2396:	22c62653          	fabs.d	fa2,fa2
    239a:	2ac71753          	fmax.d	fa4,fa4,fa2
    239e:	15fd                	add	a1,a1,-1
    23a0:	0621                	add	a2,a2,8
    23a2:	f9ed                	bnez	a1,2394 <_Z16matrixOperationsIdEvv+0xb3c>
    23a4:	1ad7f7d3          	fdiv.d	fa5,fa5,fa3
    23a8:	08a8c663          	blt	a7,a0,2434 <_Z16matrixOperationsIdEvv+0xbdc>
    23ac:	c22024f3          	csrr	s1,vlenb
    23b0:	0024d693          	srl	a3,s1,0x2
    23b4:	00329313          	sll	t1,t0,0x3
    23b8:	00680533          	add	a0,a6,t1
    23bc:	0004a597          	auipc	a1,0x4a
    23c0:	dfc5b687          	fld	fa3,-516(a1) # 4c1b8 <__SDATA_BEGIN__>
    23c4:	0486                	sll	s1,s1,0x1
    23c6:	4405                	li	s0,1
    23c8:	0d8075d7          	.insn	4, 0x0d8075d7
    23cc:	4206d457          	.insn	4, 0x4206d457
    23d0:	8616                	mv	a2,t0
    23d2:	a031                	j	23de <_Z16matrixOperationsIdEvv+0xb86>
    23d4:	0405                	add	s0,s0,1
    23d6:	951a                	add	a0,a0,t1
    23d8:	9616                	add	a2,a2,t0
    23da:	05140d63          	beq	s0,a7,2434 <_Z16matrixOperationsIdEvv+0xbdc>
    23de:	00d2f463          	bgeu	t0,a3,23e6 <_Z16matrixOperationsIdEvv+0xb8e>
    23e2:	4581                	li	a1,0
    23e4:	a815                	j	2418 <_Z16matrixOperationsIdEvv+0xbc0>
    23e6:	40d005b3          	neg	a1,a3
    23ea:	00b2f5b3          	and	a1,t0,a1
    23ee:	0d907757          	.insn	4, 0x0d907757
    23f2:	5e075557          	.insn	4, 0x5e075557
    23f6:	872e                	mv	a4,a1
    23f8:	87aa                	mv	a5,a0
    23fa:	2287f607          	.insn	4, 0x2287f607
    23fe:	2ac61657          	.insn	4, 0x2ac61657
    2402:	1aa61557          	.insn	4, 0x1aa61557
    2406:	8f15                	sub	a4,a4,a3
    2408:	97a6                	add	a5,a5,s1
    240a:	fb65                	bnez	a4,23fa <_Z16matrixOperationsIdEvv+0xba2>
    240c:	1ea414d7          	.insn	4, 0x1ea414d7
    2410:	42901757          	.insn	4, 0x42901757
    2414:	fcb280e3          	beq	t0,a1,23d4 <_Z16matrixOperationsIdEvv+0xb7c>
    2418:	40b28733          	sub	a4,t0,a1
    241c:	95b2                	add	a1,a1,a2
    241e:	058e                	sll	a1,a1,0x3
    2420:	95c2                	add	a1,a1,a6
    2422:	2194                	fld	fa3,0(a1)
    2424:	22d6a6d3          	fabs.d	fa3,fa3
    2428:	2ad71753          	fmax.d	fa4,fa4,fa3
    242c:	177d                	add	a4,a4,-1
    242e:	05a1                	add	a1,a1,8
    2430:	fb6d                	bnez	a4,2422 <_Z16matrixOperationsIdEvv+0xbca>
    2432:	b74d                	j	23d4 <_Z16matrixOperationsIdEvv+0xb7c>
    2434:	0588                	add	a0,sp,704
    2436:	f52a                	sd	a0,168(sp)
    2438:	f916                	sd	t0,176(sp)
    243a:	fd46                	sd	a7,184(sp)
    243c:	a1be                	fsd	fa5,192(sp)
    243e:	e996                	sd	t0,208(sp)
    2440:	edc6                	sd	a7,216(sp)
    2442:	b1ba                	fsd	fa4,224(sp)
    2444:	1988                	add	a0,sp,240
    2446:	110c                	add	a1,sp,160
    2448:	4f4130ef          	jal	1593c <_ZN5Eigen15PlainObjectBaseINS_6MatrixIdLin1ELin1ELi0ELin1ELin1EEEEC2INS_13CwiseBinaryOpINS_8internal18scalar_quotient_opIddEEKNS5_INS6_20scalar_difference_opIddEEKNS_12ArrayWrapperIS2_EEKNS_14CwiseNullaryOpINS6_18scalar_constant_opIdEEKNS_5ArrayIdLin1ELin1ELi0ELin1ELin1EEEEEEESL_EEEERKNS_9DenseBaseIT_EE>
    244c:	0004a517          	auipc	a0,0x4a
    2450:	d3c53503          	ld	a0,-708(a0) # 4c188 <_ZSt4cout@GLIBCXX_3.4>
    2454:	00027597          	auipc	a1,0x27
    2458:	65658593          	add	a1,a1,1622 # 29aaa <_IO_stdin_used+0x1c2>
    245c:	4655                	li	a2,21
    245e:	972ff0ef          	jal	15d0 <_ZSt16__ostream_insertIcSt11char_traitsIcEERSt13basic_ostreamIT_T0_ES6_PKS3_l@plt>
    2462:	0004a517          	auipc	a0,0x4a
    2466:	d2653503          	ld	a0,-730(a0) # 4c188 <_ZSt4cout@GLIBCXX_3.4>
    246a:	198c                	add	a1,sp,240
    246c:	186020ef          	jal	45f2 <_ZN5EigenlsINS_6MatrixIdLin1ELin1ELi0ELin1ELin1EEEEERSoS3_RKNS_9DenseBaseIT_EE>
    2470:	842a                	mv	s0,a0
    2472:	6108                	ld	a0,0(a0)
    2474:	fe853503          	ld	a0,-24(a0)
    2478:	9522                	add	a0,a0,s0
    247a:	7964                	ld	s1,240(a0)
    247c:	00048ee3          	beqz	s1,2c98 <_Z16matrixOperationsIdEvv+0x1440>
    2480:	0384c503          	lbu	a0,56(s1)
    2484:	c501                	beqz	a0,248c <_Z16matrixOperationsIdEvv+0xc34>
    2486:	0434c583          	lbu	a1,67(s1)
    248a:	a811                	j	249e <_Z16matrixOperationsIdEvv+0xc46>
    248c:	8526                	mv	a0,s1
    248e:	952ff0ef          	jal	15e0 <_ZNKSt5ctypeIcE13_M_widen_initEv@plt>
    2492:	6088                	ld	a0,0(s1)
    2494:	7910                	ld	a2,48(a0)
    2496:	45a9                	li	a1,10
    2498:	8526                	mv	a0,s1
    249a:	9602                	jalr	a2
    249c:	85aa                	mv	a1,a0
    249e:	8522                	mv	a0,s0
    24a0:	850ff0ef          	jal	14f0 <_ZNSo3putEc@plt>
    24a4:	8dcff0ef          	jal	1580 <_ZNSo5flushEv@plt>
    24a8:	754e                	ld	a0,240(sp)
    24aa:	946ff0ef          	jal	15f0 <free@plt>
    24ae:	2c813503          	ld	a0,712(sp)
    24b2:	2d013583          	ld	a1,720(sp)
    24b6:	00a5e633          	or	a2,a1,a0
    24ba:	7e064163          	bltz	a2,2c9c <_Z16matrixOperationsIdEvv+0x1444>
    24be:	f52a                	sd	a0,168(sp)
    24c0:	f92e                	sd	a1,176(sp)
    24c2:	4505                	li	a0,1
    24c4:	157a                	sll	a0,a0,0x3e
    24c6:	fd2a                	sd	a0,184(sp)
    24c8:	0580                	add	s0,sp,704
    24ca:	e1a2                	sd	s0,192(sp)
    24cc:	1988                	add	a0,sp,240
    24ce:	110c                	add	a1,sp,160
    24d0:	6a2130ef          	jal	15b72 <_ZN5Eigen15PlainObjectBaseINS_6MatrixIdLin1ELin1ELi0ELin1ELin1EEEEC2INS_13CwiseBinaryOpINS_8internal17scalar_product_opIddEEKNS_14CwiseNullaryOpINS6_18scalar_constant_opIdEEKS2_EESC_EEEERKNS_9DenseBaseIT_EE>
    24d4:	f122                	sd	s0,160(sp)
    24d6:	0128                	add	a0,sp,136
    24d8:	110c                	add	a1,sp,160
    24da:	0ab130ef          	jal	15d84 <_ZN5Eigen15PlainObjectBaseINS_6MatrixIdLin1ELin1ELi0ELin1ELin1EEEEC2INS_12CwiseUnaryOpINS_8internal16scalar_square_opIdEEKNS_12ArrayWrapperIS2_EEEEEERKNS_9DenseBaseIT_EE>
    24de:	0004a517          	auipc	a0,0x4a
    24e2:	caa53503          	ld	a0,-854(a0) # 4c188 <_ZSt4cout@GLIBCXX_3.4>
    24e6:	00027597          	auipc	a1,0x27
    24ea:	5da58593          	add	a1,a1,1498 # 29ac0 <_IO_stdin_used+0x1d8>
    24ee:	4669                	li	a2,26
    24f0:	8e0ff0ef          	jal	15d0 <_ZSt16__ostream_insertIcSt11char_traitsIcEERSt13basic_ostreamIT_T0_ES6_PKS3_l@plt>
    24f4:	0004a517          	auipc	a0,0x4a
    24f8:	c9453503          	ld	a0,-876(a0) # 4c188 <_ZSt4cout@GLIBCXX_3.4>
    24fc:	012c                	add	a1,sp,136
    24fe:	0f4020ef          	jal	45f2 <_ZN5EigenlsINS_6MatrixIdLin1ELin1ELi0ELin1ELin1EEEEERSoS3_RKNS_9DenseBaseIT_EE>
    2502:	842a                	mv	s0,a0
    2504:	6108                	ld	a0,0(a0)
    2506:	fe853503          	ld	a0,-24(a0)
    250a:	9522                	add	a0,a0,s0
    250c:	7964                	ld	s1,240(a0)
    250e:	7a048763          	beqz	s1,2cbc <_Z16matrixOperationsIdEvv+0x1464>
    2512:	0384c503          	lbu	a0,56(s1)
    2516:	c501                	beqz	a0,251e <_Z16matrixOperationsIdEvv+0xcc6>
    2518:	0434c583          	lbu	a1,67(s1)
    251c:	a811                	j	2530 <_Z16matrixOperationsIdEvv+0xcd8>
    251e:	8526                	mv	a0,s1
    2520:	8c0ff0ef          	jal	15e0 <_ZNKSt5ctypeIcE13_M_widen_initEv@plt>
    2524:	6088                	ld	a0,0(s1)
    2526:	7910                	ld	a2,48(a0)
    2528:	45a9                	li	a1,10
    252a:	8526                	mv	a0,s1
    252c:	9602                	jalr	a2
    252e:	85aa                	mv	a1,a0
    2530:	8522                	mv	a0,s0
    2532:	fbffe0ef          	jal	14f0 <_ZNSo3putEc@plt>
    2536:	84aff0ef          	jal	1580 <_ZNSo5flushEv@plt>
    253a:	0588                	add	a0,sp,704
    253c:	f12a                	sd	a0,160(sp)
    253e:	1888                	add	a0,sp,112
    2540:	110c                	add	a1,sp,160
    2542:	24f130ef          	jal	15f90 <_ZN5Eigen15PlainObjectBaseINS_6MatrixIdLin1ELin1ELi0ELin1ELin1EEEEC2INS_12CwiseUnaryOpINS_8internal14scalar_sqrt_opIdEEKNS_12ArrayWrapperIS2_EEEEEERKNS_9DenseBaseIT_EE>
    2546:	0004a517          	auipc	a0,0x4a
    254a:	c4253503          	ld	a0,-958(a0) # 4c188 <_ZSt4cout@GLIBCXX_3.4>
    254e:	00027597          	auipc	a1,0x27
    2552:	58d58593          	add	a1,a1,1421 # 29adb <_IO_stdin_used+0x1f3>
    2556:	467d                	li	a2,31
    2558:	878ff0ef          	jal	15d0 <_ZSt16__ostream_insertIcSt11char_traitsIcEERSt13basic_ostreamIT_T0_ES6_PKS3_l@plt>
    255c:	0004a517          	auipc	a0,0x4a
    2560:	c2c53503          	ld	a0,-980(a0) # 4c188 <_ZSt4cout@GLIBCXX_3.4>
    2564:	188c                	add	a1,sp,112
    2566:	08c020ef          	jal	45f2 <_ZN5EigenlsINS_6MatrixIdLin1ELin1ELi0ELin1ELin1EEEEERSoS3_RKNS_9DenseBaseIT_EE>
    256a:	842a                	mv	s0,a0
    256c:	6108                	ld	a0,0(a0)
    256e:	fe853503          	ld	a0,-24(a0)
    2572:	9522                	add	a0,a0,s0
    2574:	7964                	ld	s1,240(a0)
    2576:	74048563          	beqz	s1,2cc0 <_Z16matrixOperationsIdEvv+0x1468>
    257a:	0384c503          	lbu	a0,56(s1)
    257e:	c501                	beqz	a0,2586 <_Z16matrixOperationsIdEvv+0xd2e>
    2580:	0434c583          	lbu	a1,67(s1)
    2584:	a811                	j	2598 <_Z16matrixOperationsIdEvv+0xd40>
    2586:	8526                	mv	a0,s1
    2588:	858ff0ef          	jal	15e0 <_ZNKSt5ctypeIcE13_M_widen_initEv@plt>
    258c:	6088                	ld	a0,0(s1)
    258e:	7910                	ld	a2,48(a0)
    2590:	45a9                	li	a1,10
    2592:	8526                	mv	a0,s1
    2594:	9602                	jalr	a2
    2596:	85aa                	mv	a1,a0
    2598:	8522                	mv	a0,s0
    259a:	f57fe0ef          	jal	14f0 <_ZNSo3putEc@plt>
    259e:	fe3fe0ef          	jal	1580 <_ZNSo5flushEv@plt>
    25a2:	0588                	add	a0,sp,704
    25a4:	ecaa                	sd	a0,88(sp)
    25a6:	1108                	add	a0,sp,160
    25a8:	08ac                	add	a1,sp,88
    25aa:	3f3130ef          	jal	1619c <_ZN5Eigen15PlainObjectBaseINS_6MatrixIdLin1ELin1ELi0ELin1ELin1EEEEC2INS_12CwiseUnaryOpINS_8internal13scalar_log_opIdEEKNS_12ArrayWrapperIS2_EEEEEERKNS_9DenseBaseIT_EE>
    25ae:	0004a517          	auipc	a0,0x4a
    25b2:	bda53503          	ld	a0,-1062(a0) # 4c188 <_ZSt4cout@GLIBCXX_3.4>
    25b6:	00027597          	auipc	a1,0x27
    25ba:	54558593          	add	a1,a1,1349 # 29afb <_IO_stdin_used+0x213>
    25be:	465d                	li	a2,23
    25c0:	810ff0ef          	jal	15d0 <_ZSt16__ostream_insertIcSt11char_traitsIcEERSt13basic_ostreamIT_T0_ES6_PKS3_l@plt>
    25c4:	0004a517          	auipc	a0,0x4a
    25c8:	bc453503          	ld	a0,-1084(a0) # 4c188 <_ZSt4cout@GLIBCXX_3.4>
    25cc:	110c                	add	a1,sp,160
    25ce:	024020ef          	jal	45f2 <_ZN5EigenlsINS_6MatrixIdLin1ELin1ELi0ELin1ELin1EEEEERSoS3_RKNS_9DenseBaseIT_EE>
    25d2:	842a                	mv	s0,a0
    25d4:	6108                	ld	a0,0(a0)
    25d6:	fe853503          	ld	a0,-24(a0)
    25da:	9522                	add	a0,a0,s0
    25dc:	7964                	ld	s1,240(a0)
    25de:	6e048363          	beqz	s1,2cc4 <_Z16matrixOperationsIdEvv+0x146c>
    25e2:	0384c503          	lbu	a0,56(s1)
    25e6:	c501                	beqz	a0,25ee <_Z16matrixOperationsIdEvv+0xd96>
    25e8:	0434c583          	lbu	a1,67(s1)
    25ec:	a811                	j	2600 <_Z16matrixOperationsIdEvv+0xda8>
    25ee:	8526                	mv	a0,s1
    25f0:	ff1fe0ef          	jal	15e0 <_ZNKSt5ctypeIcE13_M_widen_initEv@plt>
    25f4:	6088                	ld	a0,0(s1)
    25f6:	7910                	ld	a2,48(a0)
    25f8:	45a9                	li	a1,10
    25fa:	8526                	mv	a0,s1
    25fc:	9602                	jalr	a2
    25fe:	85aa                	mv	a1,a0
    2600:	8522                	mv	a0,s0
    2602:	eeffe0ef          	jal	14f0 <_ZNSo3putEc@plt>
    2606:	f7bfe0ef          	jal	1580 <_ZNSo5flushEv@plt>
    260a:	750a                	ld	a0,160(sp)
    260c:	fe5fe0ef          	jal	15f0 <free@plt>
    2610:	0588                	add	a0,sp,704
    2612:	f12a                	sd	a0,160(sp)
    2614:	08a8                	add	a0,sp,88
    2616:	110c                	add	a1,sp,160
    2618:	649130ef          	jal	16460 <_ZN5Eigen15PlainObjectBaseINS_6MatrixIdLin1ELin1ELi0ELin1ELin1EEEEC2INS_12CwiseUnaryOpINS_8internal13scalar_exp_opIdEEKNS_12ArrayWrapperIS2_EEEEEERKNS_9DenseBaseIT_EE>
    261c:	0004a517          	auipc	a0,0x4a
    2620:	b6c53503          	ld	a0,-1172(a0) # 4c188 <_ZSt4cout@GLIBCXX_3.4>
    2624:	00027597          	auipc	a1,0x27
    2628:	4ef58593          	add	a1,a1,1263 # 29b13 <_IO_stdin_used+0x22b>
    262c:	467d                	li	a2,31
    262e:	fa3fe0ef          	jal	15d0 <_ZSt16__ostream_insertIcSt11char_traitsIcEERSt13basic_ostreamIT_T0_ES6_PKS3_l@plt>
    2632:	0004a517          	auipc	a0,0x4a
    2636:	b5653503          	ld	a0,-1194(a0) # 4c188 <_ZSt4cout@GLIBCXX_3.4>
    263a:	08ac                	add	a1,sp,88
    263c:	7b7010ef          	jal	45f2 <_ZN5EigenlsINS_6MatrixIdLin1ELin1ELi0ELin1ELin1EEEEERSoS3_RKNS_9DenseBaseIT_EE>
    2640:	842a                	mv	s0,a0
    2642:	6108                	ld	a0,0(a0)
    2644:	fe853503          	ld	a0,-24(a0)
    2648:	9522                	add	a0,a0,s0
    264a:	7964                	ld	s1,240(a0)
    264c:	66048e63          	beqz	s1,2cc8 <_Z16matrixOperationsIdEvv+0x1470>
    2650:	0384c503          	lbu	a0,56(s1)
    2654:	c501                	beqz	a0,265c <_Z16matrixOperationsIdEvv+0xe04>
    2656:	0434c583          	lbu	a1,67(s1)
    265a:	a811                	j	266e <_Z16matrixOperationsIdEvv+0xe16>
    265c:	8526                	mv	a0,s1
    265e:	f83fe0ef          	jal	15e0 <_ZNKSt5ctypeIcE13_M_widen_initEv@plt>
    2662:	6088                	ld	a0,0(s1)
    2664:	7910                	ld	a2,48(a0)
    2666:	45a9                	li	a1,10
    2668:	8526                	mv	a0,s1
    266a:	9602                	jalr	a2
    266c:	85aa                	mv	a1,a0
    266e:	8522                	mv	a0,s0
    2670:	e81fe0ef          	jal	14f0 <_ZNSo3putEc@plt>
    2674:	f0dfe0ef          	jal	1580 <_ZNSo5flushEv@plt>
    2678:	0588                	add	a0,sp,704
    267a:	f12a                	sd	a0,160(sp)
    267c:	0088                	add	a0,sp,64
    267e:	110c                	add	a1,sp,160
    2680:	0a4140ef          	jal	16724 <_ZN5Eigen15PlainObjectBaseINS_6MatrixIdLin1ELin1ELi0ELin1ELin1EEEEC2INS_12CwiseUnaryOpINS_8internal13scalar_abs_opIdEEKNS_12ArrayWrapperIS2_EEEEEERKNS_9DenseBaseIT_EE>
    2684:	0004a517          	auipc	a0,0x4a
    2688:	b0453503          	ld	a0,-1276(a0) # 4c188 <_ZSt4cout@GLIBCXX_3.4>
    268c:	00027597          	auipc	a1,0x27
    2690:	4a758593          	add	a1,a1,1191 # 29b33 <_IO_stdin_used+0x24b>
    2694:	02200613          	li	a2,34
    2698:	f39fe0ef          	jal	15d0 <_ZSt16__ostream_insertIcSt11char_traitsIcEERSt13basic_ostreamIT_T0_ES6_PKS3_l@plt>
    269c:	0004a517          	auipc	a0,0x4a
    26a0:	aec53503          	ld	a0,-1300(a0) # 4c188 <_ZSt4cout@GLIBCXX_3.4>
    26a4:	008c                	add	a1,sp,64
    26a6:	74d010ef          	jal	45f2 <_ZN5EigenlsINS_6MatrixIdLin1ELin1ELi0ELin1ELin1EEEEERSoS3_RKNS_9DenseBaseIT_EE>
    26aa:	842a                	mv	s0,a0
    26ac:	6108                	ld	a0,0(a0)
    26ae:	fe853503          	ld	a0,-24(a0)
    26b2:	9522                	add	a0,a0,s0
    26b4:	7964                	ld	s1,240(a0)
    26b6:	60048b63          	beqz	s1,2ccc <_Z16matrixOperationsIdEvv+0x1474>
    26ba:	0384c503          	lbu	a0,56(s1)
    26be:	c501                	beqz	a0,26c6 <_Z16matrixOperationsIdEvv+0xe6e>
    26c0:	0434c583          	lbu	a1,67(s1)
    26c4:	a811                	j	26d8 <_Z16matrixOperationsIdEvv+0xe80>
    26c6:	8526                	mv	a0,s1
    26c8:	f19fe0ef          	jal	15e0 <_ZNKSt5ctypeIcE13_M_widen_initEv@plt>
    26cc:	6088                	ld	a0,0(s1)
    26ce:	7910                	ld	a2,48(a0)
    26d0:	45a9                	li	a1,10
    26d2:	8526                	mv	a0,s1
    26d4:	9602                	jalr	a2
    26d6:	85aa                	mv	a1,a0
    26d8:	8522                	mv	a0,s0
    26da:	e17fe0ef          	jal	14f0 <_ZNSo3putEc@plt>
    26de:	ea3fe0ef          	jal	1580 <_ZNSo5flushEv@plt>
    26e2:	2c013503          	ld	a0,704(sp)
    26e6:	2d013583          	ld	a1,720(sp)
    26ea:	f12a                	sd	a0,160(sp)
    26ec:	00a03533          	snez	a0,a0
    26f0:	0005a613          	slti	a2,a1,0
    26f4:	8d71                	and	a0,a0,a2
    26f6:	f92e                	sd	a1,176(sp)
    26f8:	5c051c63          	bnez	a0,2cd0 <_Z16matrixOperationsIdEvv+0x1478>
    26fc:	0588                	add	a0,sp,704
    26fe:	fd2a                	sd	a0,184(sp)
    2700:	2c813503          	ld	a0,712(sp)
    2704:	e182                	sd	zero,192(sp)
    2706:	e582                	sd	zero,200(sp)
    2708:	4585                	li	a1,1
    270a:	e9ae                	sd	a1,208(sp)
    270c:	5ea05263          	blez	a0,2cf0 <_Z16matrixOperationsIdEvv+0x1498>
    2710:	1808                	add	a0,sp,48
    2712:	110c                	add	a1,sp,160
    2714:	21c140ef          	jal	16930 <_ZN5Eigen15PlainObjectBaseINS_6MatrixIdLi1ELin1ELi1ELi1ELin1EEEEC2INS_5BlockINS1_IdLin1ELin1ELi0ELin1ELin1EEELi1ELin1ELb0EEEEERKNS_9DenseBaseIT_EE>
    2718:	2c013583          	ld	a1,704(sp)
    271c:	2c813503          	ld	a0,712(sp)
    2720:	f12e                	sd	a1,160(sp)
    2722:	00b035b3          	snez	a1,a1
    2726:	00052613          	slti	a2,a0,0
    272a:	8df1                	and	a1,a1,a2
    272c:	f52a                	sd	a0,168(sp)
    272e:	5e059163          	bnez	a1,2d10 <_Z16matrixOperationsIdEvv+0x14b8>
    2732:	058c                	add	a1,sp,704
    2734:	2d013603          	ld	a2,720(sp)
    2738:	fd2e                	sd	a1,184(sp)
    273a:	e182                	sd	zero,192(sp)
    273c:	e582                	sd	zero,200(sp)
    273e:	e9aa                	sd	a0,208(sp)
    2740:	5ec05863          	blez	a2,2d30 <_Z16matrixOperationsIdEvv+0x14d8>
    2744:	1008                	add	a0,sp,32
    2746:	110c                	add	a1,sp,160
    2748:	38a140ef          	jal	16ad2 <_ZN5Eigen15PlainObjectBaseINS_6MatrixIdLin1ELi1ELi0ELin1ELi1EEEEC2INS_5BlockINS1_IdLin1ELin1ELi0ELin1ELin1EEELin1ELi1ELb1EEEEERKNS_9DenseBaseIT_EE>
    274c:	0004a517          	auipc	a0,0x4a
    2750:	a3c53503          	ld	a0,-1476(a0) # 4c188 <_ZSt4cout@GLIBCXX_3.4>
    2754:	00027597          	auipc	a1,0x27
    2758:	40258593          	add	a1,a1,1026 # 29b56 <_IO_stdin_used+0x26e>
    275c:	4641                	li	a2,16
    275e:	e73fe0ef          	jal	15d0 <_ZSt16__ostream_insertIcSt11char_traitsIcEERSt13basic_ostreamIT_T0_ES6_PKS3_l@plt>
    2762:	0004a517          	auipc	a0,0x4a
    2766:	a2653503          	ld	a0,-1498(a0) # 4c188 <_ZSt4cout@GLIBCXX_3.4>
    276a:	180c                	add	a1,sp,48
    276c:	5fd020ef          	jal	5568 <_ZN5EigenlsINS_6MatrixIdLi1ELin1ELi1ELi1ELin1EEEEERSoS3_RKNS_9DenseBaseIT_EE>
    2770:	842a                	mv	s0,a0
    2772:	6108                	ld	a0,0(a0)
    2774:	fe853503          	ld	a0,-24(a0)
    2778:	9522                	add	a0,a0,s0
    277a:	7964                	ld	s1,240(a0)
    277c:	3e048863          	beqz	s1,2b6c <_Z16matrixOperationsIdEvv+0x1314>
    2780:	0384c503          	lbu	a0,56(s1)
    2784:	c501                	beqz	a0,278c <_Z16matrixOperationsIdEvv+0xf34>
    2786:	0434c583          	lbu	a1,67(s1)
    278a:	a811                	j	279e <_Z16matrixOperationsIdEvv+0xf46>
    278c:	8526                	mv	a0,s1
    278e:	e53fe0ef          	jal	15e0 <_ZNKSt5ctypeIcE13_M_widen_initEv@plt>
    2792:	6088                	ld	a0,0(s1)
    2794:	7910                	ld	a2,48(a0)
    2796:	45a9                	li	a1,10
    2798:	8526                	mv	a0,s1
    279a:	9602                	jalr	a2
    279c:	85aa                	mv	a1,a0
    279e:	8522                	mv	a0,s0
    27a0:	d51fe0ef          	jal	14f0 <_ZNSo3putEc@plt>
    27a4:	dddfe0ef          	jal	1580 <_ZNSo5flushEv@plt>
    27a8:	0004a517          	auipc	a0,0x4a
    27ac:	9e053503          	ld	a0,-1568(a0) # 4c188 <_ZSt4cout@GLIBCXX_3.4>
    27b0:	00027597          	auipc	a1,0x27
    27b4:	3b758593          	add	a1,a1,951 # 29b67 <_IO_stdin_used+0x27f>
    27b8:	464d                	li	a2,19
    27ba:	e17fe0ef          	jal	15d0 <_ZSt16__ostream_insertIcSt11char_traitsIcEERSt13basic_ostreamIT_T0_ES6_PKS3_l@plt>
    27be:	0004a517          	auipc	a0,0x4a
    27c2:	9ca53503          	ld	a0,-1590(a0) # 4c188 <_ZSt4cout@GLIBCXX_3.4>
    27c6:	100c                	add	a1,sp,32
    27c8:	74d020ef          	jal	5714 <_ZN5EigenlsINS_6MatrixIdLin1ELi1ELi0ELin1ELi1EEEEERSoS3_RKNS_9DenseBaseIT_EE>
    27cc:	842a                	mv	s0,a0
    27ce:	6108                	ld	a0,0(a0)
    27d0:	fe853503          	ld	a0,-24(a0)
    27d4:	9522                	add	a0,a0,s0
    27d6:	7964                	ld	s1,240(a0)
    27d8:	38048a63          	beqz	s1,2b6c <_Z16matrixOperationsIdEvv+0x1314>
    27dc:	0384c503          	lbu	a0,56(s1)
    27e0:	c501                	beqz	a0,27e8 <_Z16matrixOperationsIdEvv+0xf90>
    27e2:	0434c583          	lbu	a1,67(s1)
    27e6:	a811                	j	27fa <_Z16matrixOperationsIdEvv+0xfa2>
    27e8:	8526                	mv	a0,s1
    27ea:	df7fe0ef          	jal	15e0 <_ZNKSt5ctypeIcE13_M_widen_initEv@plt>
    27ee:	6088                	ld	a0,0(s1)
    27f0:	7910                	ld	a2,48(a0)
    27f2:	45a9                	li	a1,10
    27f4:	8526                	mv	a0,s1
    27f6:	9602                	jalr	a2
    27f8:	85aa                	mv	a1,a0
    27fa:	8522                	mv	a0,s0
    27fc:	cf5fe0ef          	jal	14f0 <_ZNSo3putEc@plt>
    2800:	d81fe0ef          	jal	1580 <_ZNSo5flushEv@plt>
    2804:	0588                	add	a0,sp,704
    2806:	e02a                	sd	a0,0(sp)
    2808:	850a                	mv	a0,sp
    280a:	f12a                	sd	a0,160(sp)
    280c:	2b013f83          	ld	t6,688(sp)
    2810:	2c013383          	ld	t2,704(sp)
    2814:	2b813303          	ld	t1,696(sp)
    2818:	f502                	sd	zero,168(sp)
    281a:	f97e                	sd	t6,176(sp)
    281c:	00703533          	snez	a0,t2
    2820:	01f365b3          	or	a1,t1,t6
    2824:	0005a593          	slti	a1,a1,0
    2828:	8de9                	and	a1,a1,a0
    282a:	fd1a                	sd	t1,184(sp)
    282c:	52059263          	bnez	a1,2d50 <_Z16matrixOperationsIdEvv+0x14f8>
    2830:	34034063          	bltz	t1,2b70 <_Z16matrixOperationsIdEvv+0x1318>
    2834:	2d013803          	ld	a6,720(sp)
    2838:	2c813883          	ld	a7,712(sp)
    283c:	006825b3          	slt	a1,a6,t1
    2840:	000fa613          	slti	a2,t6,0
    2844:	8dd1                	or	a1,a1,a2
    2846:	01f8a633          	slt	a2,a7,t6
    284a:	8dd1                	or	a1,a1,a2
    284c:	32059263          	bnez	a1,2b70 <_Z16matrixOperationsIdEvv+0x1318>
    2850:	2a813e03          	ld	t3,680(sp)
    2854:	007e45b3          	xor	a1,t3,t2
    2858:	0015b593          	seqz	a1,a1
    285c:	8d6d                	and	a0,a0,a1
    285e:	50051963          	bnez	a0,2d70 <_Z16matrixOperationsIdEvv+0x1518>
    2862:	00133513          	seqz	a0,t1
    2866:	001fb593          	seqz	a1,t6
    286a:	8d4d                	or	a0,a0,a1
    286c:	e959                	bnez	a0,2902 <_Z16matrixOperationsIdEvv+0x10aa>
    286e:	c22027f3          	csrr	a5,vlenb
    2872:	0027d493          	srl	s1,a5,0x2
    2876:	4521                	li	a0,8
    2878:	82a6                	mv	t0,s1
    287a:	00956363          	bltu	a0,s1,2880 <_Z16matrixOperationsIdEvv+0x1028>
    287e:	42a1                	li	t0,8
    2880:	4a01                	li	s4,0
    2882:	4501                	li	a0,0
    2884:	4401                	li	s0,0
    2886:	00389e93          	sll	t4,a7,0x3
    288a:	003f9f13          	sll	t5,t6,0x3
    288e:	00179693          	sll	a3,a5,0x1
    2892:	8972                	mv	s2,t3
    2894:	899e                	mv	s3,t2
    2896:	a801                	j	28a6 <_Z16matrixOperationsIdEvv+0x104e>
    2898:	0405                	add	s0,s0,1
    289a:	99f6                	add	s3,s3,t4
    289c:	997a                	add	s2,s2,t5
    289e:	957e                	add	a0,a0,t6
    28a0:	9a46                	add	s4,s4,a7
    28a2:	06640063          	beq	s0,t1,2902 <_Z16matrixOperationsIdEvv+0x10aa>
    28a6:	005feb63          	bltu	t6,t0,28bc <_Z16matrixOperationsIdEvv+0x1064>
    28aa:	028f05b3          	mul	a1,t5,s0
    28ae:	95f2                	add	a1,a1,t3
    28b0:	028e8633          	mul	a2,t4,s0
    28b4:	961e                	add	a2,a2,t2
    28b6:	8e0d                	sub	a2,a2,a1
    28b8:	02d67363          	bgeu	a2,a3,28de <_Z16matrixOperationsIdEvv+0x1086>
    28bc:	4701                	li	a4,0
    28be:	40ef8633          	sub	a2,t6,a4
    28c2:	00a705b3          	add	a1,a4,a0
    28c6:	058e                	sll	a1,a1,0x3
    28c8:	95f2                	add	a1,a1,t3
    28ca:	9752                	add	a4,a4,s4
    28cc:	070e                	sll	a4,a4,0x3
    28ce:	971e                	add	a4,a4,t2
    28d0:	219c                	fld	fa5,0(a1)
    28d2:	a31c                	fsd	fa5,0(a4)
    28d4:	167d                	add	a2,a2,-1
    28d6:	05a1                	add	a1,a1,8
    28d8:	0721                	add	a4,a4,8
    28da:	fa7d                	bnez	a2,28d0 <_Z16matrixOperationsIdEvv+0x1078>
    28dc:	bf75                	j	2898 <_Z16matrixOperationsIdEvv+0x1040>
    28de:	409005b3          	neg	a1,s1
    28e2:	00bff733          	and	a4,t6,a1
    28e6:	85ba                	mv	a1,a4
    28e8:	864a                	mv	a2,s2
    28ea:	87ce                	mv	a5,s3
    28ec:	22867407          	.insn	4, 0x22867407
    28f0:	22878427          	.insn	4, 0x22878427
    28f4:	97b6                	add	a5,a5,a3
    28f6:	8d85                	sub	a1,a1,s1
    28f8:	9636                	add	a2,a2,a3
    28fa:	f9ed                	bnez	a1,28ec <_Z16matrixOperationsIdEvv+0x1094>
    28fc:	f8ef8ee3          	beq	t6,a4,2898 <_Z16matrixOperationsIdEvv+0x1040>
    2900:	bf7d                	j	28be <_Z16matrixOperationsIdEvv+0x1066>
    2902:	01030463          	beq	t1,a6,290a <_Z16matrixOperationsIdEvv+0x10b2>
    2906:	28089563          	bnez	a7,2b90 <_Z16matrixOperationsIdEvv+0x1338>
    290a:	291f9363          	bne	t6,a7,2b90 <_Z16matrixOperationsIdEvv+0x1338>
    290e:	0028                	add	a0,sp,8
    2910:	858a                	mv	a1,sp
    2912:	36e060ef          	jal	8c80 <_ZN5Eigen15PlainObjectBaseINS_6MatrixIdLin1ELin1ELi0ELin1ELin1EEEEC2INS_9TransposeIS2_EEEERKNS_9DenseBaseIT_EE>
    2916:	750a                	ld	a0,160(sp)
    2918:	6108                	ld	a0,0(a0)
    291a:	75aa                	ld	a1,168(sp)
    291c:	766a                	ld	a2,184(sp)
    291e:	6914                	ld	a3,16(a0)
    2920:	6508                	ld	a0,8(a0)
    2922:	95b2                	add	a1,a1,a2
    2924:	00d58463          	beq	a1,a3,292c <_Z16matrixOperationsIdEvv+0x10d4>
    2928:	28051463          	bnez	a0,2bb0 <_Z16matrixOperationsIdEvv+0x1358>
    292c:	75ca                	ld	a1,176(sp)
    292e:	28a59163          	bne	a1,a0,2bb0 <_Z16matrixOperationsIdEvv+0x1358>
    2932:	0004a517          	auipc	a0,0x4a
    2936:	85653503          	ld	a0,-1962(a0) # 4c188 <_ZSt4cout@GLIBCXX_3.4>
    293a:	00027597          	auipc	a1,0x27
    293e:	24158593          	add	a1,a1,577 # 29b7b <_IO_stdin_used+0x293>
    2942:	4655                	li	a2,21
    2944:	c8dfe0ef          	jal	15d0 <_ZSt16__ostream_insertIcSt11char_traitsIcEERSt13basic_ostreamIT_T0_ES6_PKS3_l@plt>
    2948:	0004a517          	auipc	a0,0x4a
    294c:	84053503          	ld	a0,-1984(a0) # 4c188 <_ZSt4cout@GLIBCXX_3.4>
    2950:	002c                	add	a1,sp,8
    2952:	4a1010ef          	jal	45f2 <_ZN5EigenlsINS_6MatrixIdLin1ELin1ELi0ELin1ELin1EEEEERSoS3_RKNS_9DenseBaseIT_EE>
    2956:	842a                	mv	s0,a0
    2958:	6108                	ld	a0,0(a0)
    295a:	fe853503          	ld	a0,-24(a0)
    295e:	9522                	add	a0,a0,s0
    2960:	7964                	ld	s1,240(a0)
    2962:	42048763          	beqz	s1,2d90 <_Z16matrixOperationsIdEvv+0x1538>
    2966:	0384c503          	lbu	a0,56(s1)
    296a:	c501                	beqz	a0,2972 <_Z16matrixOperationsIdEvv+0x111a>
    296c:	0434c583          	lbu	a1,67(s1)
    2970:	a811                	j	2984 <_Z16matrixOperationsIdEvv+0x112c>
    2972:	8526                	mv	a0,s1
    2974:	c6dfe0ef          	jal	15e0 <_ZNKSt5ctypeIcE13_M_widen_initEv@plt>
    2978:	6088                	ld	a0,0(s1)
    297a:	7910                	ld	a2,48(a0)
    297c:	45a9                	li	a1,10
    297e:	8526                	mv	a0,s1
    2980:	9602                	jalr	a2
    2982:	85aa                	mv	a1,a0
    2984:	8522                	mv	a0,s0
    2986:	b6bfe0ef          	jal	14f0 <_ZNSo3putEc@plt>
    298a:	bf7fe0ef          	jal	1580 <_ZNSo5flushEv@plt>
    298e:	6522                	ld	a0,8(sp)
    2990:	c61fe0ef          	jal	15f0 <free@plt>
    2994:	7502                	ld	a0,32(sp)
    2996:	c5bfe0ef          	jal	15f0 <free@plt>
    299a:	7542                	ld	a0,48(sp)
    299c:	c55fe0ef          	jal	15f0 <free@plt>
    29a0:	6506                	ld	a0,64(sp)
    29a2:	c4ffe0ef          	jal	15f0 <free@plt>
    29a6:	6566                	ld	a0,88(sp)
    29a8:	c49fe0ef          	jal	15f0 <free@plt>
    29ac:	7546                	ld	a0,112(sp)
    29ae:	c43fe0ef          	jal	15f0 <free@plt>
    29b2:	652a                	ld	a0,136(sp)
    29b4:	c3dfe0ef          	jal	15f0 <free@plt>
    29b8:	754e                	ld	a0,240(sp)
    29ba:	c37fe0ef          	jal	15f0 <free@plt>
    29be:	755e                	ld	a0,496(sp)
    29c0:	c31fe0ef          	jal	15f0 <free@plt>
    29c4:	657e                	ld	a0,472(sp)
    29c6:	c2bfe0ef          	jal	15f0 <free@plt>
    29ca:	755a                	ld	a0,432(sp)
    29cc:	c25fe0ef          	jal	15f0 <free@plt>
    29d0:	751a                	ld	a0,416(sp)
    29d2:	c1ffe0ef          	jal	15f0 <free@plt>
    29d6:	653a                	ld	a0,392(sp)
    29d8:	c19fe0ef          	jal	15f0 <free@plt>
    29dc:	7576                	ld	a0,376(sp)
    29de:	c13fe0ef          	jal	15f0 <free@plt>
    29e2:	7516                	ld	a0,352(sp)
    29e4:	c0dfe0ef          	jal	15f0 <free@plt>
    29e8:	6536                	ld	a0,328(sp)
    29ea:	c07fe0ef          	jal	15f0 <free@plt>
    29ee:	7552                	ld	a0,304(sp)
    29f0:	c01fe0ef          	jal	15f0 <free@plt>
    29f4:	6572                	ld	a0,280(sp)
    29f6:	bfbfe0ef          	jal	15f0 <free@plt>
    29fa:	20013503          	ld	a0,512(sp)
    29fe:	bf3fe0ef          	jal	15f0 <free@plt>
    2a02:	21813503          	ld	a0,536(sp)
    2a06:	bebfe0ef          	jal	15f0 <free@plt>
    2a0a:	23013503          	ld	a0,560(sp)
    2a0e:	be3fe0ef          	jal	15f0 <free@plt>
    2a12:	24813503          	ld	a0,584(sp)
    2a16:	bdbfe0ef          	jal	15f0 <free@plt>
    2a1a:	26013503          	ld	a0,608(sp)
    2a1e:	bd3fe0ef          	jal	15f0 <free@plt>
    2a22:	27813503          	ld	a0,632(sp)
    2a26:	bcbfe0ef          	jal	15f0 <free@plt>
    2a2a:	29013503          	ld	a0,656(sp)
    2a2e:	bc3fe0ef          	jal	15f0 <free@plt>
    2a32:	2a813503          	ld	a0,680(sp)
    2a36:	bbbfe0ef          	jal	15f0 <free@plt>
    2a3a:	2c013503          	ld	a0,704(sp)
    2a3e:	bb3fe0ef          	jal	15f0 <free@plt>
    2a42:	30813083          	ld	ra,776(sp)
    2a46:	30013403          	ld	s0,768(sp)
    2a4a:	2f813483          	ld	s1,760(sp)
    2a4e:	2f013903          	ld	s2,752(sp)
    2a52:	2e813983          	ld	s3,744(sp)
    2a56:	2e013a03          	ld	s4,736(sp)
    2a5a:	2d813407          	fld	fs0,728(sp)
    2a5e:	31010113          	add	sp,sp,784
    2a62:	8082                	ret
    2a64:	badfe0ef          	jal	1610 <_ZSt16__throw_bad_castv@plt>
    2a68:	00028517          	auipc	a0,0x28
    2a6c:	d1850513          	add	a0,a0,-744 # 2a780 <_IO_stdin_used+0xe98>
    2a70:	00028597          	auipc	a1,0x28
    2a74:	d4958593          	add	a1,a1,-695 # 2a7b9 <_IO_stdin_used+0xed1>
    2a78:	00029617          	auipc	a2,0x29
    2a7c:	d0d60693          	add	a3,a2,-755 # 2b785 <_IO_stdin_used+0x1e9d>
    2a80:	06e00613          	li	a2,110
    2a84:	b2dfe0ef          	jal	15b0 <__assert_fail@plt>
    2a88:	00028517          	auipc	a0,0x28
    2a8c:	cf850513          	add	a0,a0,-776 # 2a780 <_IO_stdin_used+0xe98>
    2a90:	00028597          	auipc	a1,0x28
    2a94:	d2958593          	add	a1,a1,-727 # 2a7b9 <_IO_stdin_used+0xed1>
    2a98:	00029617          	auipc	a2,0x29
    2a9c:	f8460693          	add	a3,a2,-124 # 2ba1c <_IO_stdin_used+0x2134>
    2aa0:	06e00613          	li	a2,110
    2aa4:	b0dfe0ef          	jal	15b0 <__assert_fail@plt>
    2aa8:	00028517          	auipc	a0,0x28
    2aac:	cd850513          	add	a0,a0,-808 # 2a780 <_IO_stdin_used+0xe98>
    2ab0:	00028597          	auipc	a1,0x28
    2ab4:	d0958593          	add	a1,a1,-759 # 2a7b9 <_IO_stdin_used+0xed1>
    2ab8:	00029617          	auipc	a2,0x29
    2abc:	21060693          	add	a3,a2,528 # 2bcc8 <_IO_stdin_used+0x23e0>
    2ac0:	06e00613          	li	a2,110
    2ac4:	aedfe0ef          	jal	15b0 <__assert_fail@plt>
    2ac8:	00028517          	auipc	a0,0x28
    2acc:	cb850513          	add	a0,a0,-840 # 2a780 <_IO_stdin_used+0xe98>
    2ad0:	00028597          	auipc	a1,0x28
    2ad4:	ce958593          	add	a1,a1,-791 # 2a7b9 <_IO_stdin_used+0xed1>
    2ad8:	00029617          	auipc	a2,0x29
    2adc:	51160693          	add	a3,a2,1297 # 2bfe9 <_IO_stdin_used+0x2701>
    2ae0:	06e00613          	li	a2,110
    2ae4:	acdfe0ef          	jal	15b0 <__assert_fail@plt>
    2ae8:	00028517          	auipc	a0,0x28
    2aec:	c9850513          	add	a0,a0,-872 # 2a780 <_IO_stdin_used+0xe98>
    2af0:	00028597          	auipc	a1,0x28
    2af4:	cc958593          	add	a1,a1,-823 # 2a7b9 <_IO_stdin_used+0xed1>
    2af8:	0002a617          	auipc	a2,0x2a
    2afc:	81560693          	add	a3,a2,-2027 # 2c30d <_IO_stdin_used+0x2a25>
    2b00:	06e00613          	li	a2,110
    2b04:	aadfe0ef          	jal	15b0 <__assert_fail@plt>
    2b08:	00028517          	auipc	a0,0x28
    2b0c:	c7850513          	add	a0,a0,-904 # 2a780 <_IO_stdin_used+0xe98>
    2b10:	00028597          	auipc	a1,0x28
    2b14:	ca958593          	add	a1,a1,-855 # 2a7b9 <_IO_stdin_used+0xed1>
    2b18:	0002a617          	auipc	a2,0x2a
    2b1c:	b0a60693          	add	a3,a2,-1270 # 2c622 <_IO_stdin_used+0x2d3a>
    2b20:	06e00613          	li	a2,110
    2b24:	a8dfe0ef          	jal	15b0 <__assert_fail@plt>
    2b28:	ae9fe0ef          	jal	1610 <_ZSt16__throw_bad_castv@plt>
    2b2c:	00028517          	auipc	a0,0x28
    2b30:	03750513          	add	a0,a0,55 # 2ab63 <_IO_stdin_used+0x127b>
    2b34:	00028597          	auipc	a1,0x28
    2b38:	07358593          	add	a1,a1,115 # 2aba7 <_IO_stdin_used+0x12bf>
    2b3c:	00034617          	auipc	a2,0x34
    2b40:	3e260693          	add	a3,a2,994 # 36f1e <_IO_stdin_used+0xd636>
    2b44:	19d00613          	li	a2,413
    2b48:	a69fe0ef          	jal	15b0 <__assert_fail@plt>
    2b4c:	00028517          	auipc	a0,0x28
    2b50:	01750513          	add	a0,a0,23 # 2ab63 <_IO_stdin_used+0x127b>
    2b54:	00028597          	auipc	a1,0x28
    2b58:	05358593          	add	a1,a1,83 # 2aba7 <_IO_stdin_used+0x12bf>
    2b5c:	00034617          	auipc	a2,0x34
    2b60:	3c260693          	add	a3,a2,962 # 36f1e <_IO_stdin_used+0xd636>
    2b64:	19d00613          	li	a2,413
    2b68:	a49fe0ef          	jal	15b0 <__assert_fail@plt>
    2b6c:	aa5fe0ef          	jal	1610 <_ZSt16__throw_bad_castv@plt>
    2b70:	0002b517          	auipc	a0,0x2b
    2b74:	bfb50513          	add	a0,a0,-1029 # 2d76b <_IO_stdin_used+0x3e83>
    2b78:	00028597          	auipc	a1,0x28
    2b7c:	90258593          	add	a1,a1,-1790 # 2a47a <_IO_stdin_used+0xb92>
    2b80:	00035617          	auipc	a2,0x35
    2b84:	36f60693          	add	a3,a2,879 # 37eef <_IO_stdin_used+0xe607>
    2b88:	09300613          	li	a2,147
    2b8c:	a25fe0ef          	jal	15b0 <__assert_fail@plt>
    2b90:	00035517          	auipc	a0,0x35
    2b94:	68750513          	add	a0,a0,1671 # 38217 <_IO_stdin_used+0xe92f>
    2b98:	00035597          	auipc	a1,0x35
    2b9c:	71d58593          	add	a1,a1,1821 # 382b5 <_IO_stdin_used+0xe9cd>
    2ba0:	00035617          	auipc	a2,0x35
    2ba4:	74b60693          	add	a3,a2,1867 # 382eb <_IO_stdin_used+0xea03>
    2ba8:	07800613          	li	a2,120
    2bac:	a05fe0ef          	jal	15b0 <__assert_fail@plt>
    2bb0:	00035517          	auipc	a0,0x35
    2bb4:	66750513          	add	a0,a0,1639 # 38217 <_IO_stdin_used+0xe92f>
    2bb8:	00035597          	auipc	a1,0x35
    2bbc:	6fd58593          	add	a1,a1,1789 # 382b5 <_IO_stdin_used+0xe9cd>
    2bc0:	00035617          	auipc	a2,0x35
    2bc4:	72b60693          	add	a3,a2,1835 # 382eb <_IO_stdin_used+0xea03>
    2bc8:	07800613          	li	a2,120
    2bcc:	9e5fe0ef          	jal	15b0 <__assert_fail@plt>
    2bd0:	00027517          	auipc	a0,0x27
    2bd4:	56f50513          	add	a0,a0,1391 # 2a13f <_IO_stdin_used+0x857>
    2bd8:	00027597          	auipc	a1,0x27
    2bdc:	5f358593          	add	a1,a1,1523 # 2a1cb <_IO_stdin_used+0x8e3>
    2be0:	00027617          	auipc	a2,0x27
    2be4:	61860693          	add	a3,a2,1560 # 2a1f8 <_IO_stdin_used+0x910>
    2be8:	06100613          	li	a2,97
    2bec:	9c5fe0ef          	jal	15b0 <__assert_fail@plt>
    2bf0:	a21fe0ef          	jal	1610 <_ZSt16__throw_bad_castv@plt>
    2bf4:	a1dfe0ef          	jal	1610 <_ZSt16__throw_bad_castv@plt>
    2bf8:	a19fe0ef          	jal	1610 <_ZSt16__throw_bad_castv@plt>
    2bfc:	a15fe0ef          	jal	1610 <_ZSt16__throw_bad_castv@plt>
    2c00:	a11fe0ef          	jal	1610 <_ZSt16__throw_bad_castv@plt>
    2c04:	a0dfe0ef          	jal	1610 <_ZSt16__throw_bad_castv@plt>
    2c08:	a09fe0ef          	jal	1610 <_ZSt16__throw_bad_castv@plt>
    2c0c:	a05fe0ef          	jal	1610 <_ZSt16__throw_bad_castv@plt>
    2c10:	00034517          	auipc	a0,0x34
    2c14:	c7b50513          	add	a0,a0,-901 # 3688b <_IO_stdin_used+0xcfa3>
    2c18:	0002e597          	auipc	a1,0x2e
    2c1c:	65658593          	add	a1,a1,1622 # 3126e <_IO_stdin_used+0x7986>
    2c20:	00034617          	auipc	a2,0x34
    2c24:	ca060693          	add	a3,a2,-864 # 368c0 <_IO_stdin_used+0xcfd8>
    2c28:	0f600613          	li	a2,246
    2c2c:	985fe0ef          	jal	15b0 <__assert_fail@plt>
    2c30:	0002a517          	auipc	a0,0x2a
    2c34:	07f50513          	add	a0,a0,127 # 2ccaf <_IO_stdin_used+0x33c7>
    2c38:	0002a597          	auipc	a1,0x2a
    2c3c:	08858593          	add	a1,a1,136 # 2ccc0 <_IO_stdin_used+0x33d8>
    2c40:	0002a617          	auipc	a2,0x2a
    2c44:	0af60693          	add	a3,a2,175 # 2ccef <_IO_stdin_used+0x3407>
    2c48:	05e00613          	li	a2,94
    2c4c:	965fe0ef          	jal	15b0 <__assert_fail@plt>
    2c50:	0002e517          	auipc	a0,0x2e
    2c54:	87d50513          	add	a0,a0,-1923 # 304cd <_IO_stdin_used+0x6be5>
    2c58:	0002e597          	auipc	a1,0x2e
    2c5c:	8af58593          	add	a1,a1,-1873 # 30507 <_IO_stdin_used+0x6c1f>
    2c60:	0002e617          	auipc	a2,0x2e
    2c64:	8d560693          	add	a3,a2,-1835 # 30535 <_IO_stdin_used+0x6c4d>
    2c68:	04b00613          	li	a2,75
    2c6c:	945fe0ef          	jal	15b0 <__assert_fail@plt>
    2c70:	9a1fe0ef          	jal	1610 <_ZSt16__throw_bad_castv@plt>
    2c74:	99dfe0ef          	jal	1610 <_ZSt16__throw_bad_castv@plt>
    2c78:	00027517          	auipc	a0,0x27
    2c7c:	f1950513          	add	a0,a0,-231 # 29b91 <_IO_stdin_used+0x2a9>
    2c80:	00027597          	auipc	a1,0x27
    2c84:	fa658593          	add	a1,a1,-90 # 29c26 <_IO_stdin_used+0x33e>
    2c88:	00034617          	auipc	a2,0x34
    2c8c:	36960693          	add	a3,a2,873 # 36ff1 <_IO_stdin_used+0xd709>
    2c90:	04a00613          	li	a2,74
    2c94:	91dfe0ef          	jal	15b0 <__assert_fail@plt>
    2c98:	979fe0ef          	jal	1610 <_ZSt16__throw_bad_castv@plt>
    2c9c:	00027517          	auipc	a0,0x27
    2ca0:	ef550513          	add	a0,a0,-267 # 29b91 <_IO_stdin_used+0x2a9>
    2ca4:	00027597          	auipc	a1,0x27
    2ca8:	f8258593          	add	a1,a1,-126 # 29c26 <_IO_stdin_used+0x33e>
    2cac:	00031617          	auipc	a2,0x31
    2cb0:	66160693          	add	a3,a2,1633 # 3430d <_IO_stdin_used+0xaa25>
    2cb4:	04a00613          	li	a2,74
    2cb8:	8f9fe0ef          	jal	15b0 <__assert_fail@plt>
    2cbc:	955fe0ef          	jal	1610 <_ZSt16__throw_bad_castv@plt>
    2cc0:	951fe0ef          	jal	1610 <_ZSt16__throw_bad_castv@plt>
    2cc4:	94dfe0ef          	jal	1610 <_ZSt16__throw_bad_castv@plt>
    2cc8:	949fe0ef          	jal	1610 <_ZSt16__throw_bad_castv@plt>
    2ccc:	945fe0ef          	jal	1610 <_ZSt16__throw_bad_castv@plt>
    2cd0:	00028517          	auipc	a0,0x28
    2cd4:	88650513          	add	a0,a0,-1914 # 2a556 <_IO_stdin_used+0xc6e>
    2cd8:	00028597          	auipc	a1,0x28
    2cdc:	92858593          	add	a1,a1,-1752 # 2a600 <_IO_stdin_used+0xd18>
    2ce0:	0002e617          	auipc	a2,0x2e
    2ce4:	01560693          	add	a3,a2,21 # 30cf5 <_IO_stdin_used+0x740d>
    2ce8:	0b000613          	li	a2,176
    2cec:	8c5fe0ef          	jal	15b0 <__assert_fail@plt>
    2cf0:	00027517          	auipc	a0,0x27
    2cf4:	6e350513          	add	a0,a0,1763 # 2a3d3 <_IO_stdin_used+0xaeb>
    2cf8:	00027597          	auipc	a1,0x27
    2cfc:	78258593          	add	a1,a1,1922 # 2a47a <_IO_stdin_used+0xb92>
    2d00:	0002e617          	auipc	a2,0x2e
    2d04:	f5060693          	add	a3,a2,-176 # 30c50 <_IO_stdin_used+0x7368>
    2d08:	07a00613          	li	a2,122
    2d0c:	8a5fe0ef          	jal	15b0 <__assert_fail@plt>
    2d10:	00028517          	auipc	a0,0x28
    2d14:	84650513          	add	a0,a0,-1978 # 2a556 <_IO_stdin_used+0xc6e>
    2d18:	00028597          	auipc	a1,0x28
    2d1c:	8e858593          	add	a1,a1,-1816 # 2a600 <_IO_stdin_used+0xd18>
    2d20:	00035617          	auipc	a2,0x35
    2d24:	01360693          	add	a3,a2,19 # 37d33 <_IO_stdin_used+0xe44b>
    2d28:	0b000613          	li	a2,176
    2d2c:	885fe0ef          	jal	15b0 <__assert_fail@plt>
    2d30:	00027517          	auipc	a0,0x27
    2d34:	6a350513          	add	a0,a0,1699 # 2a3d3 <_IO_stdin_used+0xaeb>
    2d38:	00027597          	auipc	a1,0x27
    2d3c:	74258593          	add	a1,a1,1858 # 2a47a <_IO_stdin_used+0xb92>
    2d40:	00035617          	auipc	a2,0x35
    2d44:	f4560693          	add	a3,a2,-187 # 37c85 <_IO_stdin_used+0xe39d>
    2d48:	07a00613          	li	a2,122
    2d4c:	865fe0ef          	jal	15b0 <__assert_fail@plt>
    2d50:	00028517          	auipc	a0,0x28
    2d54:	80650513          	add	a0,a0,-2042 # 2a556 <_IO_stdin_used+0xc6e>
    2d58:	00028597          	auipc	a1,0x28
    2d5c:	8a858593          	add	a1,a1,-1880 # 2a600 <_IO_stdin_used+0xd18>
    2d60:	00035617          	auipc	a2,0x35
    2d64:	26b60693          	add	a3,a2,619 # 37fcb <_IO_stdin_used+0xe6e3>
    2d68:	0b000613          	li	a2,176
    2d6c:	845fe0ef          	jal	15b0 <__assert_fail@plt>
    2d70:	0002a517          	auipc	a0,0x2a
    2d74:	bc750513          	add	a0,a0,-1081 # 2c937 <_IO_stdin_used+0x304f>
    2d78:	0002a597          	auipc	a1,0x2a
    2d7c:	cd258593          	add	a1,a1,-814 # 2ca4a <_IO_stdin_used+0x3162>
    2d80:	00035617          	auipc	a2,0x35
    2d84:	31560693          	add	a3,a2,789 # 38095 <_IO_stdin_used+0xe7ad>
    2d88:	17c00613          	li	a2,380
    2d8c:	825fe0ef          	jal	15b0 <__assert_fail@plt>
    2d90:	881fe0ef          	jal	1610 <_ZSt16__throw_bad_castv@plt>
    2d94:	0002a517          	auipc	a0,0x2a
    2d98:	f1b50513          	add	a0,a0,-229 # 2ccaf <_IO_stdin_used+0x33c7>
    2d9c:	0002e597          	auipc	a1,0x2e
    2da0:	82b58593          	add	a1,a1,-2005 # 305c7 <_IO_stdin_used+0x6cdf>
    2da4:	0002e617          	auipc	a2,0x2e
    2da8:	85260693          	add	a3,a2,-1966 # 305f6 <_IO_stdin_used+0x6d0e>
    2dac:	15200613          	li	a2,338
    2db0:	801fe0ef          	jal	15b0 <__assert_fail@plt>
    2db4:	85dfe0ef          	jal	1610 <_ZSt16__throw_bad_castv@plt>
    2db8:	859fe0ef          	jal	1610 <_ZSt16__throw_bad_castv@plt>
    2dbc:	842a                	mv	s0,a0
    2dbe:	a209                	j	2ec0 <_Z16matrixOperationsIdEvv+0x1668>
    2dc0:	842a                	mv	s0,a0
    2dc2:	1108                	add	a0,sp,160
    2dc4:	2fd020ef          	jal	58c0 <_ZN5Eigen16CommaInitializerINS_9TransposeINS_6MatrixIdLin1ELin1ELi0ELin1ELin1EEEEEED2Ev>
    2dc8:	a0e1                	j	2e90 <_Z16matrixOperationsIdEvv+0x1638>
    2dca:	842a                	mv	s0,a0
    2dcc:	a0e9                	j	2e96 <_Z16matrixOperationsIdEvv+0x163e>
    2dce:	842a                	mv	s0,a0
    2dd0:	a0f1                	j	2e9c <_Z16matrixOperationsIdEvv+0x1644>
    2dd2:	842a                	mv	s0,a0
    2dd4:	a0f9                	j	2ea2 <_Z16matrixOperationsIdEvv+0x164a>
    2dd6:	842a                	mv	s0,a0
    2dd8:	a8c1                	j	2ea8 <_Z16matrixOperationsIdEvv+0x1650>
    2dda:	842a                	mv	s0,a0
    2ddc:	a0f1                	j	2ea8 <_Z16matrixOperationsIdEvv+0x1650>
    2dde:	842a                	mv	s0,a0
    2de0:	a0f9                	j	2eae <_Z16matrixOperationsIdEvv+0x1656>
    2de2:	842a                	mv	s0,a0
    2de4:	a8c1                	j	2eb4 <_Z16matrixOperationsIdEvv+0x165c>
    2de6:	842a                	mv	s0,a0
    2de8:	a8c9                	j	2eba <_Z16matrixOperationsIdEvv+0x1662>
    2dea:	842a                	mv	s0,a0
    2dec:	a0f9                	j	2eba <_Z16matrixOperationsIdEvv+0x1662>
    2dee:	842a                	mv	s0,a0
    2df0:	a0e9                	j	2eba <_Z16matrixOperationsIdEvv+0x1662>
    2df2:	842a                	mv	s0,a0
    2df4:	a0f1                	j	2ec0 <_Z16matrixOperationsIdEvv+0x1668>
    2df6:	842a                	mv	s0,a0
    2df8:	a8c1                	j	2ec8 <_Z16matrixOperationsIdEvv+0x1670>
    2dfa:	842a                	mv	s0,a0
    2dfc:	a8d1                	j	2ed0 <_Z16matrixOperationsIdEvv+0x1678>
    2dfe:	842a                	mv	s0,a0
    2e00:	a8e1                	j	2ed8 <_Z16matrixOperationsIdEvv+0x1680>
    2e02:	842a                	mv	s0,a0
    2e04:	a8d1                	j	2ed8 <_Z16matrixOperationsIdEvv+0x1680>
    2e06:	842a                	mv	s0,a0
    2e08:	a8e1                	j	2ee0 <_Z16matrixOperationsIdEvv+0x1688>
    2e0a:	842a                	mv	s0,a0
    2e0c:	a8f1                	j	2ee8 <_Z16matrixOperationsIdEvv+0x1690>
    2e0e:	842a                	mv	s0,a0
    2e10:	a0c5                	j	2ef0 <_Z16matrixOperationsIdEvv+0x1698>
    2e12:	842a                	mv	s0,a0
    2e14:	a0d5                	j	2ef8 <_Z16matrixOperationsIdEvv+0x16a0>
    2e16:	842a                	mv	s0,a0
    2e18:	2c013503          	ld	a0,704(sp)
    2e1c:	fd4fe0ef          	jal	15f0 <free@plt>
    2e20:	8522                	mv	a0,s0
    2e22:	88ffe0ef          	jal	16b0 <_Unwind_Resume@plt>
    2e26:	842a                	mv	s0,a0
    2e28:	a861                	j	2ec0 <_Z16matrixOperationsIdEvv+0x1668>
    2e2a:	65f2                	ld	a1,280(sp)
    2e2c:	842a                	mv	s0,a0
    2e2e:	852e                	mv	a0,a1
    2e30:	fc0fe0ef          	jal	15f0 <free@plt>
    2e34:	a071                	j	2ec0 <_Z16matrixOperationsIdEvv+0x1668>
    2e36:	65a2                	ld	a1,8(sp)
    2e38:	842a                	mv	s0,a0
    2e3a:	852e                	mv	a0,a1
    2e3c:	fb4fe0ef          	jal	15f0 <free@plt>
    2e40:	a881                	j	2e90 <_Z16matrixOperationsIdEvv+0x1638>
    2e42:	842a                	mv	s0,a0
    2e44:	a8a1                	j	2e9c <_Z16matrixOperationsIdEvv+0x1644>
    2e46:	842a                	mv	s0,a0
    2e48:	a8a9                	j	2ea2 <_Z16matrixOperationsIdEvv+0x164a>
    2e4a:	758a                	ld	a1,160(sp)
    2e4c:	842a                	mv	s0,a0
    2e4e:	852e                	mv	a0,a1
    2e50:	a891                	j	2ea4 <_Z16matrixOperationsIdEvv+0x164c>
    2e52:	842a                	mv	s0,a0
    2e54:	a891                	j	2ea8 <_Z16matrixOperationsIdEvv+0x1650>
    2e56:	842a                	mv	s0,a0
    2e58:	a899                	j	2eae <_Z16matrixOperationsIdEvv+0x1656>
    2e5a:	75ce                	ld	a1,240(sp)
    2e5c:	842a                	mv	s0,a0
    2e5e:	852e                	mv	a0,a1
    2e60:	a899                	j	2eb6 <_Z16matrixOperationsIdEvv+0x165e>
    2e62:	842a                	mv	s0,a0
    2e64:	a899                	j	2eba <_Z16matrixOperationsIdEvv+0x1662>
    2e66:	842a                	mv	s0,a0
    2e68:	a889                	j	2eba <_Z16matrixOperationsIdEvv+0x1662>
    2e6a:	842a                	mv	s0,a0
    2e6c:	a891                	j	2ec0 <_Z16matrixOperationsIdEvv+0x1668>
    2e6e:	842a                	mv	s0,a0
    2e70:	a8a1                	j	2ec8 <_Z16matrixOperationsIdEvv+0x1670>
    2e72:	842a                	mv	s0,a0
    2e74:	a8b1                	j	2ed0 <_Z16matrixOperationsIdEvv+0x1678>
    2e76:	65f2                	ld	a1,280(sp)
    2e78:	842a                	mv	s0,a0
    2e7a:	852e                	mv	a0,a1
    2e7c:	a8a1                	j	2ed4 <_Z16matrixOperationsIdEvv+0x167c>
    2e7e:	842a                	mv	s0,a0
    2e80:	a8a1                	j	2ed8 <_Z16matrixOperationsIdEvv+0x1680>
    2e82:	842a                	mv	s0,a0
    2e84:	a8b1                	j	2ee0 <_Z16matrixOperationsIdEvv+0x1688>
    2e86:	842a                	mv	s0,a0
    2e88:	a085                	j	2ee8 <_Z16matrixOperationsIdEvv+0x1690>
    2e8a:	842a                	mv	s0,a0
    2e8c:	a095                	j	2ef0 <_Z16matrixOperationsIdEvv+0x1698>
    2e8e:	842a                	mv	s0,a0
    2e90:	7502                	ld	a0,32(sp)
    2e92:	f5efe0ef          	jal	15f0 <free@plt>
    2e96:	7542                	ld	a0,48(sp)
    2e98:	f58fe0ef          	jal	15f0 <free@plt>
    2e9c:	6506                	ld	a0,64(sp)
    2e9e:	f52fe0ef          	jal	15f0 <free@plt>
    2ea2:	6566                	ld	a0,88(sp)
    2ea4:	f4cfe0ef          	jal	15f0 <free@plt>
    2ea8:	7546                	ld	a0,112(sp)
    2eaa:	f46fe0ef          	jal	15f0 <free@plt>
    2eae:	652a                	ld	a0,136(sp)
    2eb0:	f40fe0ef          	jal	15f0 <free@plt>
    2eb4:	754e                	ld	a0,240(sp)
    2eb6:	f3afe0ef          	jal	15f0 <free@plt>
    2eba:	0a28                	add	a0,sp,280
    2ebc:	245020ef          	jal	5900 <_ZN5Eigen11EigenSolverINS_6MatrixIdLin1ELin1ELi0ELin1ELin1EEEED2Ev>
    2ec0:	20013503          	ld	a0,512(sp)
    2ec4:	f2cfe0ef          	jal	15f0 <free@plt>
    2ec8:	21813503          	ld	a0,536(sp)
    2ecc:	f24fe0ef          	jal	15f0 <free@plt>
    2ed0:	23013503          	ld	a0,560(sp)
    2ed4:	f1cfe0ef          	jal	15f0 <free@plt>
    2ed8:	24813503          	ld	a0,584(sp)
    2edc:	f14fe0ef          	jal	15f0 <free@plt>
    2ee0:	26013503          	ld	a0,608(sp)
    2ee4:	f0cfe0ef          	jal	15f0 <free@plt>
    2ee8:	27813503          	ld	a0,632(sp)
    2eec:	f04fe0ef          	jal	15f0 <free@plt>
    2ef0:	29013503          	ld	a0,656(sp)
    2ef4:	efcfe0ef          	jal	15f0 <free@plt>
    2ef8:	2a813503          	ld	a0,680(sp)
    2efc:	ef4fe0ef          	jal	15f0 <free@plt>
    2f00:	2c013503          	ld	a0,704(sp)
    2f04:	eecfe0ef          	jal	15f0 <free@plt>
    2f08:	8522                	mv	a0,s0
    2f0a:	fa6fe0ef          	jal	16b0 <_Unwind_Resume@plt>
    2f0e:	842a                	mv	s0,a0
    2f10:	b7e5                	j	2ef8 <_Z16matrixOperationsIdEvv+0x16a0>
    2f12:	842a                	mv	s0,a0
    2f14:	b75d                	j	2eba <_Z16matrixOperationsIdEvv+0x1662>

0000000000002f16 <_Z16matrixOperationsIfEvv>:
    2f16:	cf010113          	add	sp,sp,-784
    2f1a:	30113423          	sd	ra,776(sp)
    2f1e:	30813023          	sd	s0,768(sp)
    2f22:	2e913c23          	sd	s1,760(sp)
    2f26:	2f213823          	sd	s2,752(sp)
    2f2a:	2f313423          	sd	s3,744(sp)
    2f2e:	2f413023          	sd	s4,736(sp)
    2f32:	2c813c27          	fsd	fs0,728(sp)
    2f36:	440d                	li	s0,3
    2f38:	ee22                	sd	s0,280(sp)
    2f3a:	f222                	sd	s0,288(sp)
    2f3c:	0588                	add	a0,sp,704
    2f3e:	0a2c                	add	a1,sp,280
    2f40:	498150ef          	jal	183d8 <_ZN5Eigen15PlainObjectBaseINS_6MatrixIfLin1ELin1ELi0ELin1ELin1EEEEC2INS_14CwiseNullaryOpINS_8internal16scalar_random_opIfEES2_EEEERKNS_9DenseBaseIT_EE>
    2f44:	ee22                	sd	s0,280(sp)
    2f46:	f222                	sd	s0,288(sp)
    2f48:	1528                	add	a0,sp,680
    2f4a:	0a2c                	add	a1,sp,280
    2f4c:	48c150ef          	jal	183d8 <_ZN5Eigen15PlainObjectBaseINS_6MatrixIfLin1ELin1ELi0ELin1ELin1EEEEC2INS_14CwiseNullaryOpINS_8internal16scalar_random_opIfEES2_EEEERKNS_9DenseBaseIT_EE>
    2f50:	00049517          	auipc	a0,0x49
    2f54:	23853503          	ld	a0,568(a0) # 4c188 <_ZSt4cout@GLIBCXX_3.4>
    2f58:	00027597          	auipc	a1,0x27
    2f5c:	b5d58593          	add	a1,a1,-1187 # 29ab5 <_IO_stdin_used+0x1cd>
    2f60:	4629                	li	a2,10
    2f62:	e6efe0ef          	jal	15d0 <_ZSt16__ostream_insertIcSt11char_traitsIcEERSt13basic_ostreamIT_T0_ES6_PKS3_l@plt>
    2f66:	00049517          	auipc	a0,0x49
    2f6a:	22253503          	ld	a0,546(a0) # 4c188 <_ZSt4cout@GLIBCXX_3.4>
    2f6e:	058c                	add	a1,sp,704
    2f70:	0f2140ef          	jal	17062 <_ZN5EigenlsINS_6MatrixIfLin1ELin1ELi0ELin1ELin1EEEEERSoS3_RKNS_9DenseBaseIT_EE>
    2f74:	842a                	mv	s0,a0
    2f76:	6108                	ld	a0,0(a0)
    2f78:	fe853503          	ld	a0,-24(a0)
    2f7c:	9522                	add	a0,a0,s0
    2f7e:	7964                	ld	s1,240(a0)
    2f80:	e099                	bnez	s1,2f86 <_Z16matrixOperationsIfEvv+0x70>
    2f82:	1be0106f          	j	4140 <_Z16matrixOperationsIfEvv+0x122a>
    2f86:	0384c503          	lbu	a0,56(s1)
    2f8a:	c501                	beqz	a0,2f92 <_Z16matrixOperationsIfEvv+0x7c>
    2f8c:	0434c583          	lbu	a1,67(s1)
    2f90:	a811                	j	2fa4 <_Z16matrixOperationsIfEvv+0x8e>
    2f92:	8526                	mv	a0,s1
    2f94:	e4cfe0ef          	jal	15e0 <_ZNKSt5ctypeIcE13_M_widen_initEv@plt>
    2f98:	6088                	ld	a0,0(s1)
    2f9a:	7910                	ld	a2,48(a0)
    2f9c:	45a9                	li	a1,10
    2f9e:	8526                	mv	a0,s1
    2fa0:	9602                	jalr	a2
    2fa2:	85aa                	mv	a1,a0
    2fa4:	8522                	mv	a0,s0
    2fa6:	d4afe0ef          	jal	14f0 <_ZNSo3putEc@plt>
    2faa:	dd6fe0ef          	jal	1580 <_ZNSo5flushEv@plt>
    2fae:	00049517          	auipc	a0,0x49
    2fb2:	1da53503          	ld	a0,474(a0) # 4c188 <_ZSt4cout@GLIBCXX_3.4>
    2fb6:	00027597          	auipc	a1,0x27
    2fba:	99058593          	add	a1,a1,-1648 # 29946 <_IO_stdin_used+0x5e>
    2fbe:	4629                	li	a2,10
    2fc0:	e10fe0ef          	jal	15d0 <_ZSt16__ostream_insertIcSt11char_traitsIcEERSt13basic_ostreamIT_T0_ES6_PKS3_l@plt>
    2fc4:	00049517          	auipc	a0,0x49
    2fc8:	1c453503          	ld	a0,452(a0) # 4c188 <_ZSt4cout@GLIBCXX_3.4>
    2fcc:	152c                	add	a1,sp,680
    2fce:	094140ef          	jal	17062 <_ZN5EigenlsINS_6MatrixIfLin1ELin1ELi0ELin1ELin1EEEEERSoS3_RKNS_9DenseBaseIT_EE>
    2fd2:	842a                	mv	s0,a0
    2fd4:	6108                	ld	a0,0(a0)
    2fd6:	fe853503          	ld	a0,-24(a0)
    2fda:	9522                	add	a0,a0,s0
    2fdc:	7964                	ld	s1,240(a0)
    2fde:	e099                	bnez	s1,2fe4 <_Z16matrixOperationsIfEvv+0xce>
    2fe0:	1600106f          	j	4140 <_Z16matrixOperationsIfEvv+0x122a>
    2fe4:	0384c503          	lbu	a0,56(s1)
    2fe8:	c501                	beqz	a0,2ff0 <_Z16matrixOperationsIfEvv+0xda>
    2fea:	0434c583          	lbu	a1,67(s1)
    2fee:	a811                	j	3002 <_Z16matrixOperationsIfEvv+0xec>
    2ff0:	8526                	mv	a0,s1
    2ff2:	deefe0ef          	jal	15e0 <_ZNKSt5ctypeIcE13_M_widen_initEv@plt>
    2ff6:	6088                	ld	a0,0(s1)
    2ff8:	7910                	ld	a2,48(a0)
    2ffa:	45a9                	li	a1,10
    2ffc:	8526                	mv	a0,s1
    2ffe:	9602                	jalr	a2
    3000:	85aa                	mv	a1,a0
    3002:	8522                	mv	a0,s0
    3004:	cecfe0ef          	jal	14f0 <_ZNSo3putEc@plt>
    3008:	d78fe0ef          	jal	1580 <_ZNSo5flushEv@plt>
    300c:	2d013503          	ld	a0,720(sp)
    3010:	2b013583          	ld	a1,688(sp)
    3014:	00b50463          	beq	a0,a1,301c <_Z16matrixOperationsIfEvv+0x106>
    3018:	2940106f          	j	42ac <_Z16matrixOperationsIfEvv+0x1396>
    301c:	0588                	add	a0,sp,704
    301e:	ee2a                	sd	a0,280(sp)
    3020:	1528                	add	a0,sp,680
    3022:	f22a                	sd	a0,288(sp)
    3024:	0d08                	add	a0,sp,656
    3026:	0a2c                	add	a1,sp,280
    3028:	319150ef          	jal	18b40 <_ZN5Eigen15PlainObjectBaseINS_6MatrixIfLin1ELin1ELi0ELin1ELin1EEEEC2INS_7ProductIS2_S2_Li0EEEEERKNS_9DenseBaseIT_EE>
    302c:	00049517          	auipc	a0,0x49
    3030:	15c53503          	ld	a0,348(a0) # 4c188 <_ZSt4cout@GLIBCXX_3.4>
    3034:	00027597          	auipc	a1,0x27
    3038:	91d58593          	add	a1,a1,-1763 # 29951 <_IO_stdin_used+0x69>
    303c:	4639                	li	a2,14
    303e:	d92fe0ef          	jal	15d0 <_ZSt16__ostream_insertIcSt11char_traitsIcEERSt13basic_ostreamIT_T0_ES6_PKS3_l@plt>
    3042:	00049517          	auipc	a0,0x49
    3046:	14653503          	ld	a0,326(a0) # 4c188 <_ZSt4cout@GLIBCXX_3.4>
    304a:	0d0c                	add	a1,sp,656
    304c:	016140ef          	jal	17062 <_ZN5EigenlsINS_6MatrixIfLin1ELin1ELi0ELin1ELin1EEEEERSoS3_RKNS_9DenseBaseIT_EE>
    3050:	842a                	mv	s0,a0
    3052:	6108                	ld	a0,0(a0)
    3054:	fe853503          	ld	a0,-24(a0)
    3058:	9522                	add	a0,a0,s0
    305a:	7964                	ld	s1,240(a0)
    305c:	e099                	bnez	s1,3062 <_Z16matrixOperationsIfEvv+0x14c>
    305e:	26e0106f          	j	42cc <_Z16matrixOperationsIfEvv+0x13b6>
    3062:	0384c503          	lbu	a0,56(s1)
    3066:	c501                	beqz	a0,306e <_Z16matrixOperationsIfEvv+0x158>
    3068:	0434c583          	lbu	a1,67(s1)
    306c:	a811                	j	3080 <_Z16matrixOperationsIfEvv+0x16a>
    306e:	8526                	mv	a0,s1
    3070:	d70fe0ef          	jal	15e0 <_ZNKSt5ctypeIcE13_M_widen_initEv@plt>
    3074:	6088                	ld	a0,0(s1)
    3076:	7910                	ld	a2,48(a0)
    3078:	45a9                	li	a1,10
    307a:	8526                	mv	a0,s1
    307c:	9602                	jalr	a2
    307e:	85aa                	mv	a1,a0
    3080:	8522                	mv	a0,s0
    3082:	c6efe0ef          	jal	14f0 <_ZNSo3putEc@plt>
    3086:	cfafe0ef          	jal	1580 <_ZNSo5flushEv@plt>
    308a:	2c813503          	ld	a0,712(sp)
    308e:	2b013583          	ld	a1,688(sp)
    3092:	0590                	add	a2,sp,704
    3094:	ee32                	sd	a2,280(sp)
    3096:	1530                	add	a2,sp,680
    3098:	f232                	sd	a2,288(sp)
    309a:	00b50463          	beq	a0,a1,30a2 <_Z16matrixOperationsIfEvv+0x18c>
    309e:	0a60106f          	j	4144 <_Z16matrixOperationsIfEvv+0x122e>
    30a2:	2d013503          	ld	a0,720(sp)
    30a6:	2b813583          	ld	a1,696(sp)
    30aa:	00b50463          	beq	a0,a1,30b2 <_Z16matrixOperationsIfEvv+0x19c>
    30ae:	0960106f          	j	4144 <_Z16matrixOperationsIfEvv+0x122e>
    30b2:	1ca8                	add	a0,sp,632
    30b4:	0a2c                	add	a1,sp,280
    30b6:	51e170ef          	jal	1a5d4 <_ZN5Eigen15PlainObjectBaseINS_6MatrixIfLin1ELin1ELi0ELin1ELin1EEEEC2INS_13CwiseBinaryOpINS_8internal13scalar_sum_opIffEEKS2_S9_EEEERKNS_9DenseBaseIT_EE>
    30ba:	00049517          	auipc	a0,0x49
    30be:	0ce53503          	ld	a0,206(a0) # 4c188 <_ZSt4cout@GLIBCXX_3.4>
    30c2:	00027597          	auipc	a1,0x27
    30c6:	89e58593          	add	a1,a1,-1890 # 29960 <_IO_stdin_used+0x78>
    30ca:	467d                	li	a2,31
    30cc:	d04fe0ef          	jal	15d0 <_ZSt16__ostream_insertIcSt11char_traitsIcEERSt13basic_ostreamIT_T0_ES6_PKS3_l@plt>
    30d0:	00049517          	auipc	a0,0x49
    30d4:	0b853503          	ld	a0,184(a0) # 4c188 <_ZSt4cout@GLIBCXX_3.4>
    30d8:	1cac                	add	a1,sp,632
    30da:	789130ef          	jal	17062 <_ZN5EigenlsINS_6MatrixIfLin1ELin1ELi0ELin1ELin1EEEEERSoS3_RKNS_9DenseBaseIT_EE>
    30de:	842a                	mv	s0,a0
    30e0:	6108                	ld	a0,0(a0)
    30e2:	fe853503          	ld	a0,-24(a0)
    30e6:	9522                	add	a0,a0,s0
    30e8:	7964                	ld	s1,240(a0)
    30ea:	e099                	bnez	s1,30f0 <_Z16matrixOperationsIfEvv+0x1da>
    30ec:	1e40106f          	j	42d0 <_Z16matrixOperationsIfEvv+0x13ba>
    30f0:	0384c503          	lbu	a0,56(s1)
    30f4:	c501                	beqz	a0,30fc <_Z16matrixOperationsIfEvv+0x1e6>
    30f6:	0434c583          	lbu	a1,67(s1)
    30fa:	a811                	j	310e <_Z16matrixOperationsIfEvv+0x1f8>
    30fc:	8526                	mv	a0,s1
    30fe:	ce2fe0ef          	jal	15e0 <_ZNKSt5ctypeIcE13_M_widen_initEv@plt>
    3102:	6088                	ld	a0,0(s1)
    3104:	7910                	ld	a2,48(a0)
    3106:	45a9                	li	a1,10
    3108:	8526                	mv	a0,s1
    310a:	9602                	jalr	a2
    310c:	85aa                	mv	a1,a0
    310e:	8522                	mv	a0,s0
    3110:	be0fe0ef          	jal	14f0 <_ZNSo3putEc@plt>
    3114:	c6cfe0ef          	jal	1580 <_ZNSo5flushEv@plt>
    3118:	2c813503          	ld	a0,712(sp)
    311c:	2b013583          	ld	a1,688(sp)
    3120:	0590                	add	a2,sp,704
    3122:	ee32                	sd	a2,280(sp)
    3124:	1530                	add	a2,sp,680
    3126:	f232                	sd	a2,288(sp)
    3128:	00b50463          	beq	a0,a1,3130 <_Z16matrixOperationsIfEvv+0x21a>
    312c:	0380106f          	j	4164 <_Z16matrixOperationsIfEvv+0x124e>
    3130:	2d013503          	ld	a0,720(sp)
    3134:	2b813583          	ld	a1,696(sp)
    3138:	00b50463          	beq	a0,a1,3140 <_Z16matrixOperationsIfEvv+0x22a>
    313c:	0280106f          	j	4164 <_Z16matrixOperationsIfEvv+0x124e>
    3140:	1488                	add	a0,sp,608
    3142:	0a2c                	add	a1,sp,280
    3144:	6c6170ef          	jal	1a80a <_ZN5Eigen15PlainObjectBaseINS_6MatrixIfLin1ELin1ELi0ELin1ELin1EEEEC2INS_13CwiseBinaryOpINS_8internal20scalar_difference_opIffEEKS2_S9_EEEERKNS_9DenseBaseIT_EE>
    3148:	00049517          	auipc	a0,0x49
    314c:	04053503          	ld	a0,64(a0) # 4c188 <_ZSt4cout@GLIBCXX_3.4>
    3150:	00027597          	auipc	a1,0x27
    3154:	83058593          	add	a1,a1,-2000 # 29980 <_IO_stdin_used+0x98>
    3158:	02200613          	li	a2,34
    315c:	c74fe0ef          	jal	15d0 <_ZSt16__ostream_insertIcSt11char_traitsIcEERSt13basic_ostreamIT_T0_ES6_PKS3_l@plt>
    3160:	00049517          	auipc	a0,0x49
    3164:	02853503          	ld	a0,40(a0) # 4c188 <_ZSt4cout@GLIBCXX_3.4>
    3168:	148c                	add	a1,sp,608
    316a:	6f9130ef          	jal	17062 <_ZN5EigenlsINS_6MatrixIfLin1ELin1ELi0ELin1ELin1EEEEERSoS3_RKNS_9DenseBaseIT_EE>
    316e:	842a                	mv	s0,a0
    3170:	6108                	ld	a0,0(a0)
    3172:	fe853503          	ld	a0,-24(a0)
    3176:	9522                	add	a0,a0,s0
    3178:	7964                	ld	s1,240(a0)
    317a:	e099                	bnez	s1,3180 <_Z16matrixOperationsIfEvv+0x26a>
    317c:	1580106f          	j	42d4 <_Z16matrixOperationsIfEvv+0x13be>
    3180:	0384c503          	lbu	a0,56(s1)
    3184:	c501                	beqz	a0,318c <_Z16matrixOperationsIfEvv+0x276>
    3186:	0434c583          	lbu	a1,67(s1)
    318a:	a811                	j	319e <_Z16matrixOperationsIfEvv+0x288>
    318c:	8526                	mv	a0,s1
    318e:	c52fe0ef          	jal	15e0 <_ZNKSt5ctypeIcE13_M_widen_initEv@plt>
    3192:	6088                	ld	a0,0(s1)
    3194:	7910                	ld	a2,48(a0)
    3196:	45a9                	li	a1,10
    3198:	8526                	mv	a0,s1
    319a:	9602                	jalr	a2
    319c:	85aa                	mv	a1,a0
    319e:	8522                	mv	a0,s0
    31a0:	b50fe0ef          	jal	14f0 <_ZNSo3putEc@plt>
    31a4:	bdcfe0ef          	jal	1580 <_ZNSo5flushEv@plt>
    31a8:	2c813503          	ld	a0,712(sp)
    31ac:	2b013583          	ld	a1,688(sp)
    31b0:	0590                	add	a2,sp,704
    31b2:	ee32                	sd	a2,280(sp)
    31b4:	1530                	add	a2,sp,680
    31b6:	f232                	sd	a2,288(sp)
    31b8:	00b50463          	beq	a0,a1,31c0 <_Z16matrixOperationsIfEvv+0x2aa>
    31bc:	7c90006f          	j	4184 <_Z16matrixOperationsIfEvv+0x126e>
    31c0:	2d013503          	ld	a0,720(sp)
    31c4:	2b813583          	ld	a1,696(sp)
    31c8:	00b50463          	beq	a0,a1,31d0 <_Z16matrixOperationsIfEvv+0x2ba>
    31cc:	7b90006f          	j	4184 <_Z16matrixOperationsIfEvv+0x126e>
    31d0:	04a8                	add	a0,sp,584
    31d2:	0a2c                	add	a1,sp,280
    31d4:	06d170ef          	jal	1aa40 <_ZN5Eigen15PlainObjectBaseINS_6MatrixIfLin1ELin1ELi0ELin1ELin1EEEEC2INS_13CwiseBinaryOpINS_8internal17scalar_product_opIffEEKNS_12ArrayWrapperIS2_EESB_EEEERKNS_9DenseBaseIT_EE>
    31d8:	00049517          	auipc	a0,0x49
    31dc:	fb053503          	ld	a0,-80(a0) # 4c188 <_ZSt4cout@GLIBCXX_3.4>
    31e0:	00026597          	auipc	a1,0x26
    31e4:	7c358593          	add	a1,a1,1987 # 299a3 <_IO_stdin_used+0xbb>
    31e8:	02500613          	li	a2,37
    31ec:	be4fe0ef          	jal	15d0 <_ZSt16__ostream_insertIcSt11char_traitsIcEERSt13basic_ostreamIT_T0_ES6_PKS3_l@plt>
    31f0:	00049517          	auipc	a0,0x49
    31f4:	f9853503          	ld	a0,-104(a0) # 4c188 <_ZSt4cout@GLIBCXX_3.4>
    31f8:	04ac                	add	a1,sp,584
    31fa:	669130ef          	jal	17062 <_ZN5EigenlsINS_6MatrixIfLin1ELin1ELi0ELin1ELin1EEEEERSoS3_RKNS_9DenseBaseIT_EE>
    31fe:	842a                	mv	s0,a0
    3200:	6108                	ld	a0,0(a0)
    3202:	fe853503          	ld	a0,-24(a0)
    3206:	9522                	add	a0,a0,s0
    3208:	7964                	ld	s1,240(a0)
    320a:	e099                	bnez	s1,3210 <_Z16matrixOperationsIfEvv+0x2fa>
    320c:	0cc0106f          	j	42d8 <_Z16matrixOperationsIfEvv+0x13c2>
    3210:	0384c503          	lbu	a0,56(s1)
    3214:	c501                	beqz	a0,321c <_Z16matrixOperationsIfEvv+0x306>
    3216:	0434c583          	lbu	a1,67(s1)
    321a:	a811                	j	322e <_Z16matrixOperationsIfEvv+0x318>
    321c:	8526                	mv	a0,s1
    321e:	bc2fe0ef          	jal	15e0 <_ZNKSt5ctypeIcE13_M_widen_initEv@plt>
    3222:	6088                	ld	a0,0(s1)
    3224:	7910                	ld	a2,48(a0)
    3226:	45a9                	li	a1,10
    3228:	8526                	mv	a0,s1
    322a:	9602                	jalr	a2
    322c:	85aa                	mv	a1,a0
    322e:	8522                	mv	a0,s0
    3230:	ac0fe0ef          	jal	14f0 <_ZNSo3putEc@plt>
    3234:	b4cfe0ef          	jal	1580 <_ZNSo5flushEv@plt>
    3238:	2c813503          	ld	a0,712(sp)
    323c:	2b013583          	ld	a1,688(sp)
    3240:	0590                	add	a2,sp,704
    3242:	f132                	sd	a2,160(sp)
    3244:	1530                	add	a2,sp,680
    3246:	f532                	sd	a2,168(sp)
    3248:	00b50463          	beq	a0,a1,3250 <_Z16matrixOperationsIfEvv+0x33a>
    324c:	7590006f          	j	41a4 <_Z16matrixOperationsIfEvv+0x128e>
    3250:	2d013503          	ld	a0,720(sp)
    3254:	2b813583          	ld	a1,696(sp)
    3258:	00b50463          	beq	a0,a1,3260 <_Z16matrixOperationsIfEvv+0x34a>
    325c:	7490006f          	j	41a4 <_Z16matrixOperationsIfEvv+0x128e>
    3260:	0a28                	add	a0,sp,280
    3262:	110c                	add	a1,sp,160
    3264:	213170ef          	jal	1ac76 <_ZN5Eigen15PlainObjectBaseINS_6MatrixIfLin1ELin1ELi0ELin1ELin1EEEEC2INS_13CwiseBinaryOpINS_8internal18scalar_quotient_opIffEEKNS_12ArrayWrapperIS2_EESB_EEEERKNS_9DenseBaseIT_EE>
    3268:	00049517          	auipc	a0,0x49
    326c:	f2053503          	ld	a0,-224(a0) # 4c188 <_ZSt4cout@GLIBCXX_3.4>
    3270:	00026597          	auipc	a1,0x26
    3274:	75958593          	add	a1,a1,1881 # 299c9 <_IO_stdin_used+0xe1>
    3278:	467d                	li	a2,31
    327a:	b56fe0ef          	jal	15d0 <_ZSt16__ostream_insertIcSt11char_traitsIcEERSt13basic_ostreamIT_T0_ES6_PKS3_l@plt>
    327e:	00049517          	auipc	a0,0x49
    3282:	f0a53503          	ld	a0,-246(a0) # 4c188 <_ZSt4cout@GLIBCXX_3.4>
    3286:	0a2c                	add	a1,sp,280
    3288:	5db130ef          	jal	17062 <_ZN5EigenlsINS_6MatrixIfLin1ELin1ELi0ELin1ELin1EEEEERSoS3_RKNS_9DenseBaseIT_EE>
    328c:	842a                	mv	s0,a0
    328e:	6108                	ld	a0,0(a0)
    3290:	fe853503          	ld	a0,-24(a0)
    3294:	9522                	add	a0,a0,s0
    3296:	7964                	ld	s1,240(a0)
    3298:	e099                	bnez	s1,329e <_Z16matrixOperationsIfEvv+0x388>
    329a:	0420106f          	j	42dc <_Z16matrixOperationsIfEvv+0x13c6>
    329e:	0384c503          	lbu	a0,56(s1)
    32a2:	c501                	beqz	a0,32aa <_Z16matrixOperationsIfEvv+0x394>
    32a4:	0434c583          	lbu	a1,67(s1)
    32a8:	a811                	j	32bc <_Z16matrixOperationsIfEvv+0x3a6>
    32aa:	8526                	mv	a0,s1
    32ac:	b34fe0ef          	jal	15e0 <_ZNKSt5ctypeIcE13_M_widen_initEv@plt>
    32b0:	6088                	ld	a0,0(s1)
    32b2:	7910                	ld	a2,48(a0)
    32b4:	45a9                	li	a1,10
    32b6:	8526                	mv	a0,s1
    32b8:	9602                	jalr	a2
    32ba:	85aa                	mv	a1,a0
    32bc:	8522                	mv	a0,s0
    32be:	a32fe0ef          	jal	14f0 <_ZNSo3putEc@plt>
    32c2:	abefe0ef          	jal	1580 <_ZNSo5flushEv@plt>
    32c6:	6572                	ld	a0,280(sp)
    32c8:	b28fe0ef          	jal	15f0 <free@plt>
    32cc:	2c813503          	ld	a0,712(sp)
    32d0:	2b013583          	ld	a1,688(sp)
    32d4:	0590                	add	a2,sp,704
    32d6:	ee32                	sd	a2,280(sp)
    32d8:	1530                	add	a2,sp,680
    32da:	f232                	sd	a2,288(sp)
    32dc:	00b50463          	beq	a0,a1,32e4 <_Z16matrixOperationsIfEvv+0x3ce>
    32e0:	6e50006f          	j	41c4 <_Z16matrixOperationsIfEvv+0x12ae>
    32e4:	2d013503          	ld	a0,720(sp)
    32e8:	2b813583          	ld	a1,696(sp)
    32ec:	00b50463          	beq	a0,a1,32f4 <_Z16matrixOperationsIfEvv+0x3de>
    32f0:	6d50006f          	j	41c4 <_Z16matrixOperationsIfEvv+0x12ae>
    32f4:	1c08                	add	a0,sp,560
    32f6:	0a2c                	add	a1,sp,280
    32f8:	3b5170ef          	jal	1aeac <_ZN5Eigen15PlainObjectBaseINS_6MatrixIfLin1ELin1ELi0ELin1ELin1EEEEC2INS_13CwiseBinaryOpINS_8internal13scalar_min_opIffEEKNS_12ArrayWrapperIS2_EESB_EEEERKNS_9DenseBaseIT_EE>
    32fc:	00049517          	auipc	a0,0x49
    3300:	e8c53503          	ld	a0,-372(a0) # 4c188 <_ZSt4cout@GLIBCXX_3.4>
    3304:	00026597          	auipc	a1,0x26
    3308:	6e558593          	add	a1,a1,1765 # 299e9 <_IO_stdin_used+0x101>
    330c:	02200613          	li	a2,34
    3310:	ac0fe0ef          	jal	15d0 <_ZSt16__ostream_insertIcSt11char_traitsIcEERSt13basic_ostreamIT_T0_ES6_PKS3_l@plt>
    3314:	00049517          	auipc	a0,0x49
    3318:	e7453503          	ld	a0,-396(a0) # 4c188 <_ZSt4cout@GLIBCXX_3.4>
    331c:	1c0c                	add	a1,sp,560
    331e:	545130ef          	jal	17062 <_ZN5EigenlsINS_6MatrixIfLin1ELin1ELi0ELin1ELin1EEEEERSoS3_RKNS_9DenseBaseIT_EE>
    3322:	842a                	mv	s0,a0
    3324:	6108                	ld	a0,0(a0)
    3326:	fe853503          	ld	a0,-24(a0)
    332a:	9522                	add	a0,a0,s0
    332c:	7964                	ld	s1,240(a0)
    332e:	e099                	bnez	s1,3334 <_Z16matrixOperationsIfEvv+0x41e>
    3330:	7b10006f          	j	42e0 <_Z16matrixOperationsIfEvv+0x13ca>
    3334:	0384c503          	lbu	a0,56(s1)
    3338:	c501                	beqz	a0,3340 <_Z16matrixOperationsIfEvv+0x42a>
    333a:	0434c583          	lbu	a1,67(s1)
    333e:	a811                	j	3352 <_Z16matrixOperationsIfEvv+0x43c>
    3340:	8526                	mv	a0,s1
    3342:	a9efe0ef          	jal	15e0 <_ZNKSt5ctypeIcE13_M_widen_initEv@plt>
    3346:	6088                	ld	a0,0(s1)
    3348:	7910                	ld	a2,48(a0)
    334a:	45a9                	li	a1,10
    334c:	8526                	mv	a0,s1
    334e:	9602                	jalr	a2
    3350:	85aa                	mv	a1,a0
    3352:	8522                	mv	a0,s0
    3354:	99cfe0ef          	jal	14f0 <_ZNSo3putEc@plt>
    3358:	a28fe0ef          	jal	1580 <_ZNSo5flushEv@plt>
    335c:	2c813503          	ld	a0,712(sp)
    3360:	2b013583          	ld	a1,688(sp)
    3364:	0590                	add	a2,sp,704
    3366:	ee32                	sd	a2,280(sp)
    3368:	1530                	add	a2,sp,680
    336a:	f232                	sd	a2,288(sp)
    336c:	00b50463          	beq	a0,a1,3374 <_Z16matrixOperationsIfEvv+0x45e>
    3370:	6750006f          	j	41e4 <_Z16matrixOperationsIfEvv+0x12ce>
    3374:	2d013503          	ld	a0,720(sp)
    3378:	2b813583          	ld	a1,696(sp)
    337c:	00b50463          	beq	a0,a1,3384 <_Z16matrixOperationsIfEvv+0x46e>
    3380:	6650006f          	j	41e4 <_Z16matrixOperationsIfEvv+0x12ce>
    3384:	0c28                	add	a0,sp,536
    3386:	0a2c                	add	a1,sp,280
    3388:	55b170ef          	jal	1b0e2 <_ZN5Eigen15PlainObjectBaseINS_6MatrixIfLin1ELin1ELi0ELin1ELin1EEEEC2INS_13CwiseBinaryOpINS_8internal13scalar_max_opIffEEKNS_12ArrayWrapperIS2_EESB_EEEERKNS_9DenseBaseIT_EE>
    338c:	00049517          	auipc	a0,0x49
    3390:	dfc53503          	ld	a0,-516(a0) # 4c188 <_ZSt4cout@GLIBCXX_3.4>
    3394:	00026597          	auipc	a1,0x26
    3398:	67858593          	add	a1,a1,1656 # 29a0c <_IO_stdin_used+0x124>
    339c:	02200613          	li	a2,34
    33a0:	a30fe0ef          	jal	15d0 <_ZSt16__ostream_insertIcSt11char_traitsIcEERSt13basic_ostreamIT_T0_ES6_PKS3_l@plt>
    33a4:	00049517          	auipc	a0,0x49
    33a8:	de453503          	ld	a0,-540(a0) # 4c188 <_ZSt4cout@GLIBCXX_3.4>
    33ac:	0c2c                	add	a1,sp,536
    33ae:	4b5130ef          	jal	17062 <_ZN5EigenlsINS_6MatrixIfLin1ELin1ELi0ELin1ELin1EEEEERSoS3_RKNS_9DenseBaseIT_EE>
    33b2:	842a                	mv	s0,a0
    33b4:	6108                	ld	a0,0(a0)
    33b6:	fe853503          	ld	a0,-24(a0)
    33ba:	9522                	add	a0,a0,s0
    33bc:	7964                	ld	s1,240(a0)
    33be:	e099                	bnez	s1,33c4 <_Z16matrixOperationsIfEvv+0x4ae>
    33c0:	7250006f          	j	42e4 <_Z16matrixOperationsIfEvv+0x13ce>
    33c4:	0384c503          	lbu	a0,56(s1)
    33c8:	c501                	beqz	a0,33d0 <_Z16matrixOperationsIfEvv+0x4ba>
    33ca:	0434c583          	lbu	a1,67(s1)
    33ce:	a811                	j	33e2 <_Z16matrixOperationsIfEvv+0x4cc>
    33d0:	8526                	mv	a0,s1
    33d2:	a0efe0ef          	jal	15e0 <_ZNKSt5ctypeIcE13_M_widen_initEv@plt>
    33d6:	6088                	ld	a0,0(s1)
    33d8:	7910                	ld	a2,48(a0)
    33da:	45a9                	li	a1,10
    33dc:	8526                	mv	a0,s1
    33de:	9602                	jalr	a2
    33e0:	85aa                	mv	a1,a0
    33e2:	8522                	mv	a0,s0
    33e4:	90cfe0ef          	jal	14f0 <_ZNSo3putEc@plt>
    33e8:	998fe0ef          	jal	1580 <_ZNSo5flushEv@plt>
    33ec:	0588                	add	a0,sp,704
    33ee:	ee2a                	sd	a0,280(sp)
    33f0:	0408                	add	a0,sp,512
    33f2:	0a2c                	add	a1,sp,280
    33f4:	725170ef          	jal	1b318 <_ZN5Eigen15PlainObjectBaseINS_6MatrixIfLin1ELin1ELi0ELin1ELin1EEEEC2INS_9TransposeIS2_EEEERKNS_9DenseBaseIT_EE>
    33f8:	00049517          	auipc	a0,0x49
    33fc:	d9053503          	ld	a0,-624(a0) # 4c188 <_ZSt4cout@GLIBCXX_3.4>
    3400:	00026597          	auipc	a1,0x26
    3404:	62f58593          	add	a1,a1,1583 # 29a2f <_IO_stdin_used+0x147>
    3408:	4641                	li	a2,16
    340a:	9c6fe0ef          	jal	15d0 <_ZSt16__ostream_insertIcSt11char_traitsIcEERSt13basic_ostreamIT_T0_ES6_PKS3_l@plt>
    340e:	00049517          	auipc	a0,0x49
    3412:	d7a53503          	ld	a0,-646(a0) # 4c188 <_ZSt4cout@GLIBCXX_3.4>
    3416:	040c                	add	a1,sp,512
    3418:	44b130ef          	jal	17062 <_ZN5EigenlsINS_6MatrixIfLin1ELin1ELi0ELin1ELin1EEEEERSoS3_RKNS_9DenseBaseIT_EE>
    341c:	842a                	mv	s0,a0
    341e:	6108                	ld	a0,0(a0)
    3420:	fe853503          	ld	a0,-24(a0)
    3424:	9522                	add	a0,a0,s0
    3426:	7964                	ld	s1,240(a0)
    3428:	e099                	bnez	s1,342e <_Z16matrixOperationsIfEvv+0x518>
    342a:	6bf0006f          	j	42e8 <_Z16matrixOperationsIfEvv+0x13d2>
    342e:	0384c503          	lbu	a0,56(s1)
    3432:	c501                	beqz	a0,343a <_Z16matrixOperationsIfEvv+0x524>
    3434:	0434c583          	lbu	a1,67(s1)
    3438:	a811                	j	344c <_Z16matrixOperationsIfEvv+0x536>
    343a:	8526                	mv	a0,s1
    343c:	9a4fe0ef          	jal	15e0 <_ZNKSt5ctypeIcE13_M_widen_initEv@plt>
    3440:	6088                	ld	a0,0(s1)
    3442:	7910                	ld	a2,48(a0)
    3444:	45a9                	li	a1,10
    3446:	8526                	mv	a0,s1
    3448:	9602                	jalr	a2
    344a:	85aa                	mv	a1,a0
    344c:	8522                	mv	a0,s0
    344e:	8a2fe0ef          	jal	14f0 <_ZNSo3putEc@plt>
    3452:	92efe0ef          	jal	1580 <_ZNSo5flushEv@plt>
    3456:	2c813503          	ld	a0,712(sp)
    345a:	2d013583          	ld	a1,720(sp)
    345e:	0eb51663          	bne	a0,a1,354a <_Z16matrixOperationsIfEvv+0x634>
    3462:	0588                	add	a0,sp,704
    3464:	144180ef          	jal	1b5a8 <_ZN5Eigen8internal16determinant_implINS_6MatrixIfLin1ELin1ELi0ELin1ELin1EEELin1EE3runERKS3_>
    3468:	f00007d3          	fmv.w.x	fa5,zero
    346c:	a0f52553          	feq.s	a0,fa0,fa5
    3470:	e125                	bnez	a0,34d0 <_Z16matrixOperationsIfEvv+0x5ba>
    3472:	2c813503          	ld	a0,712(sp)
    3476:	2d013583          	ld	a1,720(sp)
    347a:	00b50463          	beq	a0,a1,3482 <_Z16matrixOperationsIfEvv+0x56c>
    347e:	7f30006f          	j	4470 <_Z16matrixOperationsIfEvv+0x155a>
    3482:	0588                	add	a0,sp,704
    3484:	f12a                	sd	a0,160(sp)
    3486:	0a28                	add	a0,sp,280
    3488:	110c                	add	a1,sp,160
    348a:	2161b0ef          	jal	1e6a0 <_ZN5Eigen15PlainObjectBaseINS_6MatrixIfLin1ELin1ELi0ELin1ELin1EEEEC2INS_7InverseIS2_EEEERKNS_9DenseBaseIT_EE>
    348e:	00049517          	auipc	a0,0x49
    3492:	cfa53503          	ld	a0,-774(a0) # 4c188 <_ZSt4cout@GLIBCXX_3.4>
    3496:	00026597          	auipc	a1,0x26
    349a:	5aa58593          	add	a1,a1,1450 # 29a40 <_IO_stdin_used+0x158>
    349e:	4639                	li	a2,14
    34a0:	930fe0ef          	jal	15d0 <_ZSt16__ostream_insertIcSt11char_traitsIcEERSt13basic_ostreamIT_T0_ES6_PKS3_l@plt>
    34a4:	00049517          	auipc	a0,0x49
    34a8:	ce453503          	ld	a0,-796(a0) # 4c188 <_ZSt4cout@GLIBCXX_3.4>
    34ac:	0a2c                	add	a1,sp,280
    34ae:	3b5130ef          	jal	17062 <_ZN5EigenlsINS_6MatrixIfLin1ELin1ELi0ELin1ELin1EEEEERSoS3_RKNS_9DenseBaseIT_EE>
    34b2:	842a                	mv	s0,a0
    34b4:	6108                	ld	a0,0(a0)
    34b6:	fe853503          	ld	a0,-24(a0)
    34ba:	9522                	add	a0,a0,s0
    34bc:	7964                	ld	s1,240(a0)
    34be:	e099                	bnez	s1,34c4 <_Z16matrixOperationsIfEvv+0x5ae>
    34c0:	7d10006f          	j	4490 <_Z16matrixOperationsIfEvv+0x157a>
    34c4:	0384c503          	lbu	a0,56(s1)
    34c8:	cd15                	beqz	a0,3504 <_Z16matrixOperationsIfEvv+0x5ee>
    34ca:	0434c583          	lbu	a1,67(s1)
    34ce:	a0a1                	j	3516 <_Z16matrixOperationsIfEvv+0x600>
    34d0:	00049517          	auipc	a0,0x49
    34d4:	cb853403          	ld	s0,-840(a0) # 4c188 <_ZSt4cout@GLIBCXX_3.4>
    34d8:	00026517          	auipc	a0,0x26
    34dc:	57750593          	add	a1,a0,1399 # 29a4f <_IO_stdin_used+0x167>
    34e0:	466d                	li	a2,27
    34e2:	8522                	mv	a0,s0
    34e4:	8ecfe0ef          	jal	15d0 <_ZSt16__ostream_insertIcSt11char_traitsIcEERSt13basic_ostreamIT_T0_ES6_PKS3_l@plt>
    34e8:	6008                	ld	a0,0(s0)
    34ea:	fe853503          	ld	a0,-24(a0)
    34ee:	9522                	add	a0,a0,s0
    34f0:	7960                	ld	s0,240(a0)
    34f2:	e019                	bnez	s0,34f8 <_Z16matrixOperationsIfEvv+0x5e2>
    34f4:	7a10006f          	j	4494 <_Z16matrixOperationsIfEvv+0x157e>
    34f8:	03844503          	lbu	a0,56(s0)
    34fc:	c515                	beqz	a0,3528 <_Z16matrixOperationsIfEvv+0x612>
    34fe:	04344583          	lbu	a1,67(s0)
    3502:	a825                	j	353a <_Z16matrixOperationsIfEvv+0x624>
    3504:	8526                	mv	a0,s1
    3506:	8dafe0ef          	jal	15e0 <_ZNKSt5ctypeIcE13_M_widen_initEv@plt>
    350a:	6088                	ld	a0,0(s1)
    350c:	7910                	ld	a2,48(a0)
    350e:	45a9                	li	a1,10
    3510:	8526                	mv	a0,s1
    3512:	9602                	jalr	a2
    3514:	85aa                	mv	a1,a0
    3516:	8522                	mv	a0,s0
    3518:	fd9fd0ef          	jal	14f0 <_ZNSo3putEc@plt>
    351c:	864fe0ef          	jal	1580 <_ZNSo5flushEv@plt>
    3520:	6572                	ld	a0,280(sp)
    3522:	8cefe0ef          	jal	15f0 <free@plt>
    3526:	a015                	j	354a <_Z16matrixOperationsIfEvv+0x634>
    3528:	8522                	mv	a0,s0
    352a:	8b6fe0ef          	jal	15e0 <_ZNKSt5ctypeIcE13_M_widen_initEv@plt>
    352e:	6008                	ld	a0,0(s0)
    3530:	7910                	ld	a2,48(a0)
    3532:	45a9                	li	a1,10
    3534:	8522                	mv	a0,s0
    3536:	9602                	jalr	a2
    3538:	85aa                	mv	a1,a0
    353a:	00049517          	auipc	a0,0x49
    353e:	c4e53503          	ld	a0,-946(a0) # 4c188 <_ZSt4cout@GLIBCXX_3.4>
    3542:	faffd0ef          	jal	14f0 <_ZNSo3putEc@plt>
    3546:	83afe0ef          	jal	1580 <_ZNSo5flushEv@plt>
    354a:	0a28                	add	a0,sp,280
    354c:	058c                	add	a1,sp,704
    354e:	4605                	li	a2,1
    3550:	4bf130ef          	jal	1720e <_ZN5Eigen11EigenSolverINS_6MatrixIfLin1ELin1ELi0ELin1ELin1EEEEC2IS2_EERKNS_9EigenBaseIT_EEb>
    3554:	14014503          	lbu	a0,320(sp)
    3558:	e119                	bnez	a0,355e <_Z16matrixOperationsIfEvv+0x648>
    355a:	5930006f          	j	42ec <_Z16matrixOperationsIfEvv+0x13d6>
    355e:	1a08                	add	a0,sp,304
    3560:	e62a                	sd	a0,264(sp)
    3562:	1108                	add	a0,sp,160
    3564:	0a2c                	add	a1,sp,280
    3566:	6b5130ef          	jal	1741a <_ZNK5Eigen11EigenSolverINS_6MatrixIfLin1ELin1ELi0ELin1ELin1EEEE12eigenvectorsEv>
    356a:	750a                	ld	a0,160(sp)
    356c:	884fe0ef          	jal	15f0 <free@plt>
    3570:	00049517          	auipc	a0,0x49
    3574:	c1853503          	ld	a0,-1000(a0) # 4c188 <_ZSt4cout@GLIBCXX_3.4>
    3578:	00026597          	auipc	a1,0x26
    357c:	4f358593          	add	a1,a1,1267 # 29a6b <_IO_stdin_used+0x183>
    3580:	4649                	li	a2,18
    3582:	84efe0ef          	jal	15d0 <_ZSt16__ostream_insertIcSt11char_traitsIcEERSt13basic_ostreamIT_T0_ES6_PKS3_l@plt>
    3586:	00049517          	auipc	a0,0x49
    358a:	c0253503          	ld	a0,-1022(a0) # 4c188 <_ZSt4cout@GLIBCXX_3.4>
    358e:	022c                	add	a1,sp,264
    3590:	782140ef          	jal	17d12 <_ZN5EigenlsINS_12CwiseUnaryOpINS_8internal14scalar_real_opISt7complexIfEEEKNS_6MatrixIS5_Lin1ELi1ELi0ELin1ELi1EEEEEEERSoSB_RKNS_9DenseBaseIT_EE>
    3594:	842a                	mv	s0,a0
    3596:	6108                	ld	a0,0(a0)
    3598:	fe853503          	ld	a0,-24(a0)
    359c:	9522                	add	a0,a0,s0
    359e:	7964                	ld	s1,240(a0)
    35a0:	460482e3          	beqz	s1,4204 <_Z16matrixOperationsIfEvv+0x12ee>
    35a4:	0384c503          	lbu	a0,56(s1)
    35a8:	c501                	beqz	a0,35b0 <_Z16matrixOperationsIfEvv+0x69a>
    35aa:	0434c583          	lbu	a1,67(s1)
    35ae:	a811                	j	35c2 <_Z16matrixOperationsIfEvv+0x6ac>
    35b0:	8526                	mv	a0,s1
    35b2:	82efe0ef          	jal	15e0 <_ZNKSt5ctypeIcE13_M_widen_initEv@plt>
    35b6:	6088                	ld	a0,0(s1)
    35b8:	7910                	ld	a2,48(a0)
    35ba:	45a9                	li	a1,10
    35bc:	8526                	mv	a0,s1
    35be:	9602                	jalr	a2
    35c0:	85aa                	mv	a1,a0
    35c2:	8522                	mv	a0,s0
    35c4:	f2dfd0ef          	jal	14f0 <_ZNSo3putEc@plt>
    35c8:	fb9fd0ef          	jal	1580 <_ZNSo5flushEv@plt>
    35cc:	00049517          	auipc	a0,0x49
    35d0:	bbc53503          	ld	a0,-1092(a0) # 4c188 <_ZSt4cout@GLIBCXX_3.4>
    35d4:	00026597          	auipc	a1,0x26
    35d8:	4aa58593          	add	a1,a1,1194 # 29a7e <_IO_stdin_used+0x196>
    35dc:	4649                	li	a2,18
    35de:	ff3fd0ef          	jal	15d0 <_ZSt16__ostream_insertIcSt11char_traitsIcEERSt13basic_ostreamIT_T0_ES6_PKS3_l@plt>
    35e2:	2c813503          	ld	a0,712(sp)
    35e6:	2d013583          	ld	a1,720(sp)
    35ea:	52b511e3          	bne	a0,a1,430c <_Z16matrixOperationsIfEvv+0x13f6>
    35ee:	0588                	add	a0,sp,704
    35f0:	7b9170ef          	jal	1b5a8 <_ZN5Eigen8internal16determinant_implINS_6MatrixIfLin1ELin1ELi0ELin1ELin1EEELin1EE3runERKS3_>
    35f4:	42050553          	fcvt.d.s	fa0,fa0
    35f8:	00049517          	auipc	a0,0x49
    35fc:	b9053503          	ld	a0,-1136(a0) # 4c188 <_ZSt4cout@GLIBCXX_3.4>
    3600:	880fe0ef          	jal	1680 <_ZNSo9_M_insertIdEERSoT_@plt>
    3604:	842a                	mv	s0,a0
    3606:	6108                	ld	a0,0(a0)
    3608:	fe853503          	ld	a0,-24(a0)
    360c:	9522                	add	a0,a0,s0
    360e:	7964                	ld	s1,240(a0)
    3610:	3e048ae3          	beqz	s1,4204 <_Z16matrixOperationsIfEvv+0x12ee>
    3614:	0384c503          	lbu	a0,56(s1)
    3618:	c501                	beqz	a0,3620 <_Z16matrixOperationsIfEvv+0x70a>
    361a:	0434c583          	lbu	a1,67(s1)
    361e:	a811                	j	3632 <_Z16matrixOperationsIfEvv+0x71c>
    3620:	8526                	mv	a0,s1
    3622:	fbffd0ef          	jal	15e0 <_ZNKSt5ctypeIcE13_M_widen_initEv@plt>
    3626:	6088                	ld	a0,0(s1)
    3628:	7910                	ld	a2,48(a0)
    362a:	45a9                	li	a1,10
    362c:	8526                	mv	a0,s1
    362e:	9602                	jalr	a2
    3630:	85aa                	mv	a1,a0
    3632:	8522                	mv	a0,s0
    3634:	ebdfd0ef          	jal	14f0 <_ZNSo3putEc@plt>
    3638:	f49fd0ef          	jal	1580 <_ZNSo5flushEv@plt>
    363c:	2d013583          	ld	a1,720(sp)
    3640:	2c813503          	ld	a0,712(sp)
    3644:	00a5e633          	or	a2,a1,a0
    3648:	4e0642e3          	bltz	a2,432c <_Z16matrixOperationsIfEvv+0x1416>
    364c:	00a5c363          	blt	a1,a0,3652 <_Z16matrixOperationsIfEvv+0x73c>
    3650:	85aa                	mv	a1,a0
    3652:	cdc9                	beqz	a1,36ec <_Z16matrixOperationsIfEvv+0x7d6>
    3654:	2c013303          	ld	t1,704(sp)
    3658:	00032407          	flw	fs0,0(t1)
    365c:	fff58713          	add	a4,a1,-1
    3660:	cb41                	beqz	a4,36f0 <_Z16matrixOperationsIfEvv+0x7da>
    3662:	00150893          	add	a7,a0,1
    3666:	c2202673          	csrr	a2,vlenb
    366a:	00165493          	srl	s1,a2,0x1
    366e:	4285                	li	t0,1
    3670:	04976d63          	bltu	a4,s1,36ca <_Z16matrixOperationsIfEvv+0x7b4>
    3674:	00365793          	srl	a5,a2,0x3
    3678:	00279613          	sll	a2,a5,0x2
    367c:	40c00633          	neg	a2,a2
    3680:	00c77833          	and	a6,a4,a2
    3684:	00180293          	add	t0,a6,1
    3688:	0d107657          	.insn	4, 0x0d107657
    368c:	5e003457          	.insn	4, 0x5e003457
    3690:	09107057          	.insn	4, 0x09107057
    3694:	42045457          	.insn	4, 0x42045457
    3698:	00289693          	sll	a3,a7,0x2
    369c:	00d30633          	add	a2,t1,a3
    36a0:	02f887b3          	mul	a5,a7,a5
    36a4:	0792                	sll	a5,a5,0x4
    36a6:	8442                	mv	s0,a6
    36a8:	0d107057          	.insn	4, 0x0d107057
    36ac:	0ad66507          	.insn	4, 0x0ad66507
    36b0:	02a41457          	.insn	4, 0x02a41457
    36b4:	8c05                	sub	s0,s0,s1
    36b6:	963e                	add	a2,a2,a5
    36b8:	f865                	bnez	s0,36a8 <_Z16matrixOperationsIfEvv+0x792>
    36ba:	42006557          	.insn	4, 0x42006557
    36be:	06851457          	.insn	4, 0x06851457
    36c2:	42801457          	.insn	4, 0x42801457
    36c6:	03070563          	beq	a4,a6,36f0 <_Z16matrixOperationsIfEvv+0x7da>
    36ca:	405585b3          	sub	a1,a1,t0
    36ce:	03128633          	mul	a2,t0,a7
    36d2:	060a                	sll	a2,a2,0x2
    36d4:	00c30433          	add	s0,t1,a2
    36d8:	050a                	sll	a0,a0,0x2
    36da:	0511                	add	a0,a0,4
    36dc:	00042787          	flw	fa5,0(s0)
    36e0:	0087f453          	fadd.s	fs0,fa5,fs0
    36e4:	15fd                	add	a1,a1,-1
    36e6:	942a                	add	s0,s0,a0
    36e8:	f9f5                	bnez	a1,36dc <_Z16matrixOperationsIfEvv+0x7c6>
    36ea:	a019                	j	36f0 <_Z16matrixOperationsIfEvv+0x7da>
    36ec:	f0000453          	fmv.w.x	fs0,zero
    36f0:	00049517          	auipc	a0,0x49
    36f4:	a9853503          	ld	a0,-1384(a0) # 4c188 <_ZSt4cout@GLIBCXX_3.4>
    36f8:	00026597          	auipc	a1,0x26
    36fc:	39958593          	add	a1,a1,921 # 29a91 <_IO_stdin_used+0x1a9>
    3700:	4631                	li	a2,12
    3702:	ecffd0ef          	jal	15d0 <_ZSt16__ostream_insertIcSt11char_traitsIcEERSt13basic_ostreamIT_T0_ES6_PKS3_l@plt>
    3706:	42040553          	fcvt.d.s	fa0,fs0
    370a:	00049517          	auipc	a0,0x49
    370e:	a7e53503          	ld	a0,-1410(a0) # 4c188 <_ZSt4cout@GLIBCXX_3.4>
    3712:	f6ffd0ef          	jal	1680 <_ZNSo9_M_insertIdEERSoT_@plt>
    3716:	842a                	mv	s0,a0
    3718:	6108                	ld	a0,0(a0)
    371a:	fe853503          	ld	a0,-24(a0)
    371e:	9522                	add	a0,a0,s0
    3720:	7964                	ld	s1,240(a0)
    3722:	420485e3          	beqz	s1,434c <_Z16matrixOperationsIfEvv+0x1436>
    3726:	0384c503          	lbu	a0,56(s1)
    372a:	c501                	beqz	a0,3732 <_Z16matrixOperationsIfEvv+0x81c>
    372c:	0434c583          	lbu	a1,67(s1)
    3730:	a811                	j	3744 <_Z16matrixOperationsIfEvv+0x82e>
    3732:	8526                	mv	a0,s1
    3734:	eadfd0ef          	jal	15e0 <_ZNKSt5ctypeIcE13_M_widen_initEv@plt>
    3738:	6088                	ld	a0,0(s1)
    373a:	7910                	ld	a2,48(a0)
    373c:	45a9                	li	a1,10
    373e:	8526                	mv	a0,s1
    3740:	9602                	jalr	a2
    3742:	85aa                	mv	a1,a0
    3744:	8522                	mv	a0,s0
    3746:	dabfd0ef          	jal	14f0 <_ZNSo3putEc@plt>
    374a:	e37fd0ef          	jal	1580 <_ZNSo5flushEv@plt>
    374e:	2c813983          	ld	s3,712(sp)
    3752:	2b305be3          	blez	s3,4208 <_Z16matrixOperationsIfEvv+0x12f2>
    3756:	2d013903          	ld	s2,720(sp)
    375a:	2b2057e3          	blez	s2,4208 <_Z16matrixOperationsIfEvv+0x12f2>
    375e:	2c013803          	ld	a6,704(sp)
    3762:	00082407          	flw	fs0,0(a6)
    3766:	4589                	li	a1,2
    3768:	06b9e863          	bltu	s3,a1,37d8 <_Z16matrixOperationsIfEvv+0x8c2>
    376c:	fff98693          	add	a3,s3,-1
    3770:	c22024f3          	csrr	s1,vlenb
    3774:	0014d713          	srl	a4,s1,0x1
    3778:	4605                	li	a2,1
    377a:	04e6e463          	bltu	a3,a4,37c2 <_Z16matrixOperationsIfEvv+0x8ac>
    377e:	40e00433          	neg	s0,a4
    3782:	8c75                	and	s0,s0,a3
    3784:	00140613          	add	a2,s0,1
    3788:	0d107557          	.insn	4, 0x0d107557
    378c:	5e003457          	.insn	4, 0x5e003457
    3790:	09107057          	.insn	4, 0x09107057
    3794:	42045457          	.insn	4, 0x42045457
    3798:	00480793          	add	a5,a6,4
    379c:	0486                	sll	s1,s1,0x1
    379e:	8522                	mv	a0,s0
    37a0:	2287e507          	.insn	4, 0x2287e507
    37a4:	0d107057          	.insn	4, 0x0d107057
    37a8:	02a41457          	.insn	4, 0x02a41457
    37ac:	8d19                	sub	a0,a0,a4
    37ae:	97a6                	add	a5,a5,s1
    37b0:	f965                	bnez	a0,37a0 <_Z16matrixOperationsIfEvv+0x88a>
    37b2:	42006557          	.insn	4, 0x42006557
    37b6:	06851457          	.insn	4, 0x06851457
    37ba:	42801457          	.insn	4, 0x42801457
    37be:	00868d63          	beq	a3,s0,37d8 <_Z16matrixOperationsIfEvv+0x8c2>
    37c2:	40c98533          	sub	a0,s3,a2
    37c6:	060a                	sll	a2,a2,0x2
    37c8:	9642                	add	a2,a2,a6
    37ca:	00062787          	flw	fa5,0(a2)
    37ce:	0087f453          	fadd.s	fs0,fa5,fs0
    37d2:	157d                	add	a0,a0,-1
    37d4:	0611                	add	a2,a2,4
    37d6:	f975                	bnez	a0,37ca <_Z16matrixOperationsIfEvv+0x8b4>
    37d8:	08b94663          	blt	s2,a1,3864 <_Z16matrixOperationsIfEvv+0x94e>
    37dc:	c2202773          	csrr	a4,vlenb
    37e0:	00175593          	srl	a1,a4,0x1
    37e4:	00299893          	sll	a7,s3,0x2
    37e8:	011802b3          	add	t0,a6,a7
    37ec:	0706                	sll	a4,a4,0x1
    37ee:	4785                	li	a5,1
    37f0:	0d107557          	.insn	4, 0x0d107557
    37f4:	5e003457          	.insn	4, 0x5e003457
    37f8:	42006557          	.insn	4, 0x42006557
    37fc:	844e                	mv	s0,s3
    37fe:	a031                	j	380a <_Z16matrixOperationsIfEvv+0x8f4>
    3800:	0785                	add	a5,a5,1
    3802:	92c6                	add	t0,t0,a7
    3804:	944e                	add	s0,s0,s3
    3806:	05278f63          	beq	a5,s2,3864 <_Z16matrixOperationsIfEvv+0x94e>
    380a:	00b9f463          	bgeu	s3,a1,3812 <_Z16matrixOperationsIfEvv+0x8fc>
    380e:	4601                	li	a2,0
    3810:	a825                	j	3848 <_Z16matrixOperationsIfEvv+0x932>
    3812:	40b00533          	neg	a0,a1
    3816:	00a9f633          	and	a2,s3,a0
    381a:	09107057          	.insn	4, 0x09107057
    381e:	9e80b657          	.insn	4, 0x9e80b657
    3822:	42045657          	.insn	4, 0x42045657
    3826:	8532                	mv	a0,a2
    3828:	8696                	mv	a3,t0
    382a:	2286e707          	.insn	4, 0x2286e707
    382e:	0d107057          	.insn	4, 0x0d107057
    3832:	02e61657          	.insn	4, 0x02e61657
    3836:	8d0d                	sub	a0,a0,a1
    3838:	96ba                	add	a3,a3,a4
    383a:	f965                	bnez	a0,382a <_Z16matrixOperationsIfEvv+0x914>
    383c:	06c515d7          	.insn	4, 0x06c515d7
    3840:	42b01457          	.insn	4, 0x42b01457
    3844:	fac98ee3          	beq	s3,a2,3800 <_Z16matrixOperationsIfEvv+0x8ea>
    3848:	40c984b3          	sub	s1,s3,a2
    384c:	9622                	add	a2,a2,s0
    384e:	00261513          	sll	a0,a2,0x2
    3852:	9542                	add	a0,a0,a6
    3854:	00052787          	flw	fa5,0(a0)
    3858:	0087f453          	fadd.s	fs0,fa5,fs0
    385c:	14fd                	add	s1,s1,-1
    385e:	0511                	add	a0,a0,4
    3860:	f8f5                	bnez	s1,3854 <_Z16matrixOperationsIfEvv+0x93e>
    3862:	bf79                	j	3800 <_Z16matrixOperationsIfEvv+0x8ea>
    3864:	00049517          	auipc	a0,0x49
    3868:	92453503          	ld	a0,-1756(a0) # 4c188 <_ZSt4cout@GLIBCXX_3.4>
    386c:	00026597          	auipc	a1,0x26
    3870:	23258593          	add	a1,a1,562 # 29a9e <_IO_stdin_used+0x1b6>
    3874:	462d                	li	a2,11
    3876:	d5bfd0ef          	jal	15d0 <_ZSt16__ostream_insertIcSt11char_traitsIcEERSt13basic_ostreamIT_T0_ES6_PKS3_l@plt>
    387a:	03390533          	mul	a0,s2,s3
    387e:	d02577d3          	fcvt.s.l	fa5,a0
    3882:	18f477d3          	fdiv.s	fa5,fs0,fa5
    3886:	42078553          	fcvt.d.s	fa0,fa5
    388a:	00049517          	auipc	a0,0x49
    388e:	8fe53503          	ld	a0,-1794(a0) # 4c188 <_ZSt4cout@GLIBCXX_3.4>
    3892:	deffd0ef          	jal	1680 <_ZNSo9_M_insertIdEERSoT_@plt>
    3896:	842a                	mv	s0,a0
    3898:	6108                	ld	a0,0(a0)
    389a:	fe853503          	ld	a0,-24(a0)
    389e:	9522                	add	a0,a0,s0
    38a0:	7964                	ld	s1,240(a0)
    38a2:	2a0487e3          	beqz	s1,4350 <_Z16matrixOperationsIfEvv+0x143a>
    38a6:	0384c503          	lbu	a0,56(s1)
    38aa:	c501                	beqz	a0,38b2 <_Z16matrixOperationsIfEvv+0x99c>
    38ac:	0434c583          	lbu	a1,67(s1)
    38b0:	a811                	j	38c4 <_Z16matrixOperationsIfEvv+0x9ae>
    38b2:	8526                	mv	a0,s1
    38b4:	d2dfd0ef          	jal	15e0 <_ZNKSt5ctypeIcE13_M_widen_initEv@plt>
    38b8:	6088                	ld	a0,0(s1)
    38ba:	7910                	ld	a2,48(a0)
    38bc:	45a9                	li	a1,10
    38be:	8526                	mv	a0,s1
    38c0:	9602                	jalr	a2
    38c2:	85aa                	mv	a1,a0
    38c4:	8522                	mv	a0,s0
    38c6:	c2bfd0ef          	jal	14f0 <_ZNSo3putEc@plt>
    38ca:	cb7fd0ef          	jal	1580 <_ZNSo5flushEv@plt>
    38ce:	2c813283          	ld	t0,712(sp)
    38d2:	14505be3          	blez	t0,4228 <_Z16matrixOperationsIfEvv+0x1312>
    38d6:	2d013883          	ld	a7,720(sp)
    38da:	151057e3          	blez	a7,4228 <_Z16matrixOperationsIfEvv+0x1312>
    38de:	2c013803          	ld	a6,704(sp)
    38e2:	00082707          	flw	fa4,0(a6)
    38e6:	4509                	li	a0,2
    38e8:	20e707d3          	fmv.s	fa5,fa4
    38ec:	06a2eb63          	bltu	t0,a0,3962 <_Z16matrixOperationsIfEvv+0xa4c>
    38f0:	fff28613          	add	a2,t0,-1
    38f4:	c22024f3          	csrr	s1,vlenb
    38f8:	0014d593          	srl	a1,s1,0x1
    38fc:	4685                	li	a3,1
    38fe:	20e707d3          	fmv.s	fa5,fa4
    3902:	04b66463          	bltu	a2,a1,394a <_Z16matrixOperationsIfEvv+0xa34>
    3906:	40b00433          	neg	s0,a1
    390a:	8c71                	and	s0,s0,a2
    390c:	00140693          	add	a3,s0,1
    3910:	0d107757          	.insn	4, 0x0d107757
    3914:	5e003457          	.insn	4, 0x5e003457
    3918:	09107057          	.insn	4, 0x09107057
    391c:	42075457          	.insn	4, 0x42075457
    3920:	00480713          	add	a4,a6,4
    3924:	0486                	sll	s1,s1,0x1
    3926:	87a2                	mv	a5,s0
    3928:	22876507          	.insn	4, 0x22876507
    392c:	0d107057          	.insn	4, 0x0d107057
    3930:	02a41457          	.insn	4, 0x02a41457
    3934:	8f8d                	sub	a5,a5,a1
    3936:	9726                	add	a4,a4,s1
    3938:	fbe5                	bnez	a5,3928 <_Z16matrixOperationsIfEvv+0xa12>
    393a:	42006557          	.insn	4, 0x42006557
    393e:	06851457          	.insn	4, 0x06851457
    3942:	428017d7          	.insn	4, 0x428017d7
    3946:	00860e63          	beq	a2,s0,3962 <_Z16matrixOperationsIfEvv+0xa4c>
    394a:	40d285b3          	sub	a1,t0,a3
    394e:	00269613          	sll	a2,a3,0x2
    3952:	9642                	add	a2,a2,a6
    3954:	00062687          	flw	fa3,0(a2)
    3958:	00f6f7d3          	fadd.s	fa5,fa3,fa5
    395c:	15fd                	add	a1,a1,-1
    395e:	0611                	add	a2,a2,4
    3960:	f9f5                	bnez	a1,3954 <_Z16matrixOperationsIfEvv+0xa3e>
    3962:	08a8c563          	blt	a7,a0,39ec <_Z16matrixOperationsIfEvv+0xad6>
    3966:	c22024f3          	csrr	s1,vlenb
    396a:	0014d693          	srl	a3,s1,0x1
    396e:	00229313          	sll	t1,t0,0x2
    3972:	00680633          	add	a2,a6,t1
    3976:	0486                	sll	s1,s1,0x1
    3978:	4405                	li	s0,1
    397a:	0d107557          	.insn	4, 0x0d107557
    397e:	5e003457          	.insn	4, 0x5e003457
    3982:	42006557          	.insn	4, 0x42006557
    3986:	8516                	mv	a0,t0
    3988:	a031                	j	3994 <_Z16matrixOperationsIfEvv+0xa7e>
    398a:	0405                	add	s0,s0,1
    398c:	961a                	add	a2,a2,t1
    398e:	9516                	add	a0,a0,t0
    3990:	05140e63          	beq	s0,a7,39ec <_Z16matrixOperationsIfEvv+0xad6>
    3994:	00d2f463          	bgeu	t0,a3,399c <_Z16matrixOperationsIfEvv+0xa86>
    3998:	4581                	li	a1,0
    399a:	a825                	j	39d2 <_Z16matrixOperationsIfEvv+0xabc>
    399c:	40d005b3          	neg	a1,a3
    39a0:	00b2f5b3          	and	a1,t0,a1
    39a4:	09107057          	.insn	4, 0x09107057
    39a8:	9e80b657          	.insn	4, 0x9e80b657
    39ac:	4207d657          	.insn	4, 0x4207d657
    39b0:	872e                	mv	a4,a1
    39b2:	87b2                	mv	a5,a2
    39b4:	2287e707          	.insn	4, 0x2287e707
    39b8:	0d107057          	.insn	4, 0x0d107057
    39bc:	02e61657          	.insn	4, 0x02e61657
    39c0:	8f15                	sub	a4,a4,a3
    39c2:	97a6                	add	a5,a5,s1
    39c4:	fb65                	bnez	a4,39b4 <_Z16matrixOperationsIfEvv+0xa9e>
    39c6:	06c515d7          	.insn	4, 0x06c515d7
    39ca:	42b017d7          	.insn	4, 0x42b017d7
    39ce:	fab28ee3          	beq	t0,a1,398a <_Z16matrixOperationsIfEvv+0xa74>
    39d2:	40b28733          	sub	a4,t0,a1
    39d6:	95aa                	add	a1,a1,a0
    39d8:	058a                	sll	a1,a1,0x2
    39da:	95c2                	add	a1,a1,a6
    39dc:	0005a687          	flw	fa3,0(a1)
    39e0:	00f6f7d3          	fadd.s	fa5,fa3,fa5
    39e4:	177d                	add	a4,a4,-1
    39e6:	0591                	add	a1,a1,4
    39e8:	fb75                	bnez	a4,39dc <_Z16matrixOperationsIfEvv+0xac6>
    39ea:	b745                	j	398a <_Z16matrixOperationsIfEvv+0xa74>
    39ec:	0058e533          	or	a0,a7,t0
    39f0:	160542e3          	bltz	a0,4354 <_Z16matrixOperationsIfEvv+0x143e>
    39f4:	02588533          	mul	a0,a7,t0
    39f8:	d02576d3          	fcvt.s.l	fa3,a0
    39fc:	4509                	li	a0,2
    39fe:	20e72753          	fabs.s	fa4,fa4
    3a02:	06a2ea63          	bltu	t0,a0,3a76 <_Z16matrixOperationsIfEvv+0xb60>
    3a06:	fff28693          	add	a3,t0,-1
    3a0a:	c22024f3          	csrr	s1,vlenb
    3a0e:	0014d793          	srl	a5,s1,0x1
    3a12:	4605                	li	a2,1
    3a14:	04f6e463          	bltu	a3,a5,3a5c <_Z16matrixOperationsIfEvv+0xb46>
    3a18:	40f00433          	neg	s0,a5
    3a1c:	8c75                	and	s0,s0,a3
    3a1e:	00140613          	add	a2,s0,1
    3a22:	0d1075d7          	.insn	4, 0x0d1075d7
    3a26:	5e075457          	.insn	4, 0x5e075457
    3a2a:	00480713          	add	a4,a6,4
    3a2e:	0486                	sll	s1,s1,0x1
    3a30:	85a2                	mv	a1,s0
    3a32:	22876507          	.insn	4, 0x22876507
    3a36:	2aa51557          	.insn	4, 0x2aa51557
    3a3a:	1a851457          	.insn	4, 0x1a851457
    3a3e:	8d9d                	sub	a1,a1,a5
    3a40:	9726                	add	a4,a4,s1
    3a42:	f9e5                	bnez	a1,3a32 <_Z16matrixOperationsIfEvv+0xb1c>
    3a44:	00048597          	auipc	a1,0x48
    3a48:	77c5a707          	flw	fa4,1916(a1) # 4c1c0 <__SDATA_BEGIN__+0x8>
    3a4c:	42075557          	.insn	4, 0x42075557
    3a50:	1e851457          	.insn	4, 0x1e851457
    3a54:	42801757          	.insn	4, 0x42801757
    3a58:	00868f63          	beq	a3,s0,3a76 <_Z16matrixOperationsIfEvv+0xb60>
    3a5c:	40c285b3          	sub	a1,t0,a2
    3a60:	060a                	sll	a2,a2,0x2
    3a62:	9642                	add	a2,a2,a6
    3a64:	00062607          	flw	fa2,0(a2)
    3a68:	20c62653          	fabs.s	fa2,fa2
    3a6c:	28c71753          	fmax.s	fa4,fa4,fa2
    3a70:	15fd                	add	a1,a1,-1
    3a72:	0611                	add	a2,a2,4
    3a74:	f9e5                	bnez	a1,3a64 <_Z16matrixOperationsIfEvv+0xb4e>
    3a76:	18d7f7d3          	fdiv.s	fa5,fa5,fa3
    3a7a:	08a8c763          	blt	a7,a0,3b08 <_Z16matrixOperationsIfEvv+0xbf2>
    3a7e:	c22024f3          	csrr	s1,vlenb
    3a82:	0014d693          	srl	a3,s1,0x1
    3a86:	00229313          	sll	t1,t0,0x2
    3a8a:	00680533          	add	a0,a6,t1
    3a8e:	00048597          	auipc	a1,0x48
    3a92:	7325a687          	flw	fa3,1842(a1) # 4c1c0 <__SDATA_BEGIN__+0x8>
    3a96:	0486                	sll	s1,s1,0x1
    3a98:	4405                	li	s0,1
    3a9a:	0d0075d7          	.insn	4, 0x0d0075d7
    3a9e:	4206d457          	.insn	4, 0x4206d457
    3aa2:	8616                	mv	a2,t0
    3aa4:	a031                	j	3ab0 <_Z16matrixOperationsIfEvv+0xb9a>
    3aa6:	0405                	add	s0,s0,1
    3aa8:	951a                	add	a0,a0,t1
    3aaa:	9616                	add	a2,a2,t0
    3aac:	05140e63          	beq	s0,a7,3b08 <_Z16matrixOperationsIfEvv+0xbf2>
    3ab0:	00d2f463          	bgeu	t0,a3,3ab8 <_Z16matrixOperationsIfEvv+0xba2>
    3ab4:	4581                	li	a1,0
    3ab6:	a815                	j	3aea <_Z16matrixOperationsIfEvv+0xbd4>
    3ab8:	40d005b3          	neg	a1,a3
    3abc:	00b2f5b3          	and	a1,t0,a1
    3ac0:	0d107757          	.insn	4, 0x0d107757
    3ac4:	5e075557          	.insn	4, 0x5e075557
    3ac8:	872e                	mv	a4,a1
    3aca:	87aa                	mv	a5,a0
    3acc:	2287e607          	.insn	4, 0x2287e607
    3ad0:	2ac61657          	.insn	4, 0x2ac61657
    3ad4:	1aa61557          	.insn	4, 0x1aa61557
    3ad8:	8f15                	sub	a4,a4,a3
    3ada:	97a6                	add	a5,a5,s1
    3adc:	fb65                	bnez	a4,3acc <_Z16matrixOperationsIfEvv+0xbb6>
    3ade:	1ea414d7          	.insn	4, 0x1ea414d7
    3ae2:	42901757          	.insn	4, 0x42901757
    3ae6:	fcb280e3          	beq	t0,a1,3aa6 <_Z16matrixOperationsIfEvv+0xb90>
    3aea:	40b28733          	sub	a4,t0,a1
    3aee:	95b2                	add	a1,a1,a2
    3af0:	058a                	sll	a1,a1,0x2
    3af2:	95c2                	add	a1,a1,a6
    3af4:	0005a687          	flw	fa3,0(a1)
    3af8:	20d6a6d3          	fabs.s	fa3,fa3
    3afc:	28d71753          	fmax.s	fa4,fa4,fa3
    3b00:	177d                	add	a4,a4,-1
    3b02:	0591                	add	a1,a1,4
    3b04:	fb65                	bnez	a4,3af4 <_Z16matrixOperationsIfEvv+0xbde>
    3b06:	b745                	j	3aa6 <_Z16matrixOperationsIfEvv+0xb90>
    3b08:	0588                	add	a0,sp,704
    3b0a:	f52a                	sd	a0,168(sp)
    3b0c:	f916                	sd	t0,176(sp)
    3b0e:	fd46                	sd	a7,184(sp)
    3b10:	0cf12027          	fsw	fa5,192(sp)
    3b14:	e996                	sd	t0,208(sp)
    3b16:	edc6                	sd	a7,216(sp)
    3b18:	0ee12027          	fsw	fa4,224(sp)
    3b1c:	1988                	add	a0,sp,240
    3b1e:	110c                	add	a1,sp,160
    3b20:	4e8240ef          	jal	28008 <_ZN5Eigen15PlainObjectBaseINS_6MatrixIfLin1ELin1ELi0ELin1ELin1EEEEC2INS_13CwiseBinaryOpINS_8internal18scalar_quotient_opIffEEKNS5_INS6_20scalar_difference_opIffEEKNS_12ArrayWrapperIS2_EEKNS_14CwiseNullaryOpINS6_18scalar_constant_opIfEEKNS_5ArrayIfLin1ELin1ELi0ELin1ELin1EEEEEEESL_EEEERKNS_9DenseBaseIT_EE>
    3b24:	00048517          	auipc	a0,0x48
    3b28:	66453503          	ld	a0,1636(a0) # 4c188 <_ZSt4cout@GLIBCXX_3.4>
    3b2c:	00026597          	auipc	a1,0x26
    3b30:	f7e58593          	add	a1,a1,-130 # 29aaa <_IO_stdin_used+0x1c2>
    3b34:	4655                	li	a2,21
    3b36:	a9bfd0ef          	jal	15d0 <_ZSt16__ostream_insertIcSt11char_traitsIcEERSt13basic_ostreamIT_T0_ES6_PKS3_l@plt>
    3b3a:	00048517          	auipc	a0,0x48
    3b3e:	64e53503          	ld	a0,1614(a0) # 4c188 <_ZSt4cout@GLIBCXX_3.4>
    3b42:	198c                	add	a1,sp,240
    3b44:	51e130ef          	jal	17062 <_ZN5EigenlsINS_6MatrixIfLin1ELin1ELi0ELin1ELin1EEEEERSoS3_RKNS_9DenseBaseIT_EE>
    3b48:	842a                	mv	s0,a0
    3b4a:	6108                	ld	a0,0(a0)
    3b4c:	fe853503          	ld	a0,-24(a0)
    3b50:	9522                	add	a0,a0,s0
    3b52:	7964                	ld	s1,240(a0)
    3b54:	020480e3          	beqz	s1,4374 <_Z16matrixOperationsIfEvv+0x145e>
    3b58:	0384c503          	lbu	a0,56(s1)
    3b5c:	c501                	beqz	a0,3b64 <_Z16matrixOperationsIfEvv+0xc4e>
    3b5e:	0434c583          	lbu	a1,67(s1)
    3b62:	a811                	j	3b76 <_Z16matrixOperationsIfEvv+0xc60>
    3b64:	8526                	mv	a0,s1
    3b66:	a7bfd0ef          	jal	15e0 <_ZNKSt5ctypeIcE13_M_widen_initEv@plt>
    3b6a:	6088                	ld	a0,0(s1)
    3b6c:	7910                	ld	a2,48(a0)
    3b6e:	45a9                	li	a1,10
    3b70:	8526                	mv	a0,s1
    3b72:	9602                	jalr	a2
    3b74:	85aa                	mv	a1,a0
    3b76:	8522                	mv	a0,s0
    3b78:	979fd0ef          	jal	14f0 <_ZNSo3putEc@plt>
    3b7c:	a05fd0ef          	jal	1580 <_ZNSo5flushEv@plt>
    3b80:	754e                	ld	a0,240(sp)
    3b82:	a6ffd0ef          	jal	15f0 <free@plt>
    3b86:	2c813503          	ld	a0,712(sp)
    3b8a:	2d013583          	ld	a1,720(sp)
    3b8e:	00a5e633          	or	a2,a1,a0
    3b92:	7e064363          	bltz	a2,4378 <_Z16matrixOperationsIfEvv+0x1462>
    3b96:	f52a                	sd	a0,168(sp)
    3b98:	f92e                	sd	a1,176(sp)
    3b9a:	40000537          	lui	a0,0x40000
    3b9e:	dd2a                	sw	a0,184(sp)
    3ba0:	0580                	add	s0,sp,704
    3ba2:	e1a2                	sd	s0,192(sp)
    3ba4:	1988                	add	a0,sp,240
    3ba6:	110c                	add	a1,sp,160
    3ba8:	6a0240ef          	jal	28248 <_ZN5Eigen15PlainObjectBaseINS_6MatrixIfLin1ELin1ELi0ELin1ELin1EEEEC2INS_13CwiseBinaryOpINS_8internal17scalar_product_opIffEEKNS_14CwiseNullaryOpINS6_18scalar_constant_opIfEEKS2_EESC_EEEERKNS_9DenseBaseIT_EE>
    3bac:	f122                	sd	s0,160(sp)
    3bae:	0128                	add	a0,sp,136
    3bb0:	110c                	add	a1,sp,160
    3bb2:	0ad240ef          	jal	2845e <_ZN5Eigen15PlainObjectBaseINS_6MatrixIfLin1ELin1ELi0ELin1ELin1EEEEC2INS_12CwiseUnaryOpINS_8internal16scalar_square_opIfEEKNS_12ArrayWrapperIS2_EEEEEERKNS_9DenseBaseIT_EE>
    3bb6:	00048517          	auipc	a0,0x48
    3bba:	5d253503          	ld	a0,1490(a0) # 4c188 <_ZSt4cout@GLIBCXX_3.4>
    3bbe:	00026597          	auipc	a1,0x26
    3bc2:	f0258593          	add	a1,a1,-254 # 29ac0 <_IO_stdin_used+0x1d8>
    3bc6:	4669                	li	a2,26
    3bc8:	a09fd0ef          	jal	15d0 <_ZSt16__ostream_insertIcSt11char_traitsIcEERSt13basic_ostreamIT_T0_ES6_PKS3_l@plt>
    3bcc:	00048517          	auipc	a0,0x48
    3bd0:	5bc53503          	ld	a0,1468(a0) # 4c188 <_ZSt4cout@GLIBCXX_3.4>
    3bd4:	012c                	add	a1,sp,136
    3bd6:	48c130ef          	jal	17062 <_ZN5EigenlsINS_6MatrixIfLin1ELin1ELi0ELin1ELin1EEEEERSoS3_RKNS_9DenseBaseIT_EE>
    3bda:	842a                	mv	s0,a0
    3bdc:	6108                	ld	a0,0(a0)
    3bde:	fe853503          	ld	a0,-24(a0)
    3be2:	9522                	add	a0,a0,s0
    3be4:	7964                	ld	s1,240(a0)
    3be6:	7a048963          	beqz	s1,4398 <_Z16matrixOperationsIfEvv+0x1482>
    3bea:	0384c503          	lbu	a0,56(s1)
    3bee:	c501                	beqz	a0,3bf6 <_Z16matrixOperationsIfEvv+0xce0>
    3bf0:	0434c583          	lbu	a1,67(s1)
    3bf4:	a811                	j	3c08 <_Z16matrixOperationsIfEvv+0xcf2>
    3bf6:	8526                	mv	a0,s1
    3bf8:	9e9fd0ef          	jal	15e0 <_ZNKSt5ctypeIcE13_M_widen_initEv@plt>
    3bfc:	6088                	ld	a0,0(s1)
    3bfe:	7910                	ld	a2,48(a0)
    3c00:	45a9                	li	a1,10
    3c02:	8526                	mv	a0,s1
    3c04:	9602                	jalr	a2
    3c06:	85aa                	mv	a1,a0
    3c08:	8522                	mv	a0,s0
    3c0a:	8e7fd0ef          	jal	14f0 <_ZNSo3putEc@plt>
    3c0e:	973fd0ef          	jal	1580 <_ZNSo5flushEv@plt>
    3c12:	0588                	add	a0,sp,704
    3c14:	f12a                	sd	a0,160(sp)
    3c16:	1888                	add	a0,sp,112
    3c18:	110c                	add	a1,sp,160
    3c1a:	253240ef          	jal	2866c <_ZN5Eigen15PlainObjectBaseINS_6MatrixIfLin1ELin1ELi0ELin1ELin1EEEEC2INS_12CwiseUnaryOpINS_8internal14scalar_sqrt_opIfEEKNS_12ArrayWrapperIS2_EEEEEERKNS_9DenseBaseIT_EE>
    3c1e:	00048517          	auipc	a0,0x48
    3c22:	56a53503          	ld	a0,1386(a0) # 4c188 <_ZSt4cout@GLIBCXX_3.4>
    3c26:	00026597          	auipc	a1,0x26
    3c2a:	eb558593          	add	a1,a1,-331 # 29adb <_IO_stdin_used+0x1f3>
    3c2e:	467d                	li	a2,31
    3c30:	9a1fd0ef          	jal	15d0 <_ZSt16__ostream_insertIcSt11char_traitsIcEERSt13basic_ostreamIT_T0_ES6_PKS3_l@plt>
    3c34:	00048517          	auipc	a0,0x48
    3c38:	55453503          	ld	a0,1364(a0) # 4c188 <_ZSt4cout@GLIBCXX_3.4>
    3c3c:	188c                	add	a1,sp,112
    3c3e:	424130ef          	jal	17062 <_ZN5EigenlsINS_6MatrixIfLin1ELin1ELi0ELin1ELin1EEEEERSoS3_RKNS_9DenseBaseIT_EE>
    3c42:	842a                	mv	s0,a0
    3c44:	6108                	ld	a0,0(a0)
    3c46:	fe853503          	ld	a0,-24(a0)
    3c4a:	9522                	add	a0,a0,s0
    3c4c:	7964                	ld	s1,240(a0)
    3c4e:	74048763          	beqz	s1,439c <_Z16matrixOperationsIfEvv+0x1486>
    3c52:	0384c503          	lbu	a0,56(s1)
    3c56:	c501                	beqz	a0,3c5e <_Z16matrixOperationsIfEvv+0xd48>
    3c58:	0434c583          	lbu	a1,67(s1)
    3c5c:	a811                	j	3c70 <_Z16matrixOperationsIfEvv+0xd5a>
    3c5e:	8526                	mv	a0,s1
    3c60:	981fd0ef          	jal	15e0 <_ZNKSt5ctypeIcE13_M_widen_initEv@plt>
    3c64:	6088                	ld	a0,0(s1)
    3c66:	7910                	ld	a2,48(a0)
    3c68:	45a9                	li	a1,10
    3c6a:	8526                	mv	a0,s1
    3c6c:	9602                	jalr	a2
    3c6e:	85aa                	mv	a1,a0
    3c70:	8522                	mv	a0,s0
    3c72:	87ffd0ef          	jal	14f0 <_ZNSo3putEc@plt>
    3c76:	90bfd0ef          	jal	1580 <_ZNSo5flushEv@plt>
    3c7a:	0588                	add	a0,sp,704
    3c7c:	ecaa                	sd	a0,88(sp)
    3c7e:	1108                	add	a0,sp,160
    3c80:	08ac                	add	a1,sp,88
    3c82:	3f9240ef          	jal	2887a <_ZN5Eigen15PlainObjectBaseINS_6MatrixIfLin1ELin1ELi0ELin1ELin1EEEEC2INS_12CwiseUnaryOpINS_8internal13scalar_log_opIfEEKNS_12ArrayWrapperIS2_EEEEEERKNS_9DenseBaseIT_EE>
    3c86:	00048517          	auipc	a0,0x48
    3c8a:	50253503          	ld	a0,1282(a0) # 4c188 <_ZSt4cout@GLIBCXX_3.4>
    3c8e:	00026597          	auipc	a1,0x26
    3c92:	e6d58593          	add	a1,a1,-403 # 29afb <_IO_stdin_used+0x213>
    3c96:	465d                	li	a2,23
    3c98:	939fd0ef          	jal	15d0 <_ZSt16__ostream_insertIcSt11char_traitsIcEERSt13basic_ostreamIT_T0_ES6_PKS3_l@plt>
    3c9c:	00048517          	auipc	a0,0x48
    3ca0:	4ec53503          	ld	a0,1260(a0) # 4c188 <_ZSt4cout@GLIBCXX_3.4>
    3ca4:	110c                	add	a1,sp,160
    3ca6:	3bc130ef          	jal	17062 <_ZN5EigenlsINS_6MatrixIfLin1ELin1ELi0ELin1ELin1EEEEERSoS3_RKNS_9DenseBaseIT_EE>
    3caa:	842a                	mv	s0,a0
    3cac:	6108                	ld	a0,0(a0)
    3cae:	fe853503          	ld	a0,-24(a0)
    3cb2:	9522                	add	a0,a0,s0
    3cb4:	7964                	ld	s1,240(a0)
    3cb6:	6e048563          	beqz	s1,43a0 <_Z16matrixOperationsIfEvv+0x148a>
    3cba:	0384c503          	lbu	a0,56(s1)
    3cbe:	c501                	beqz	a0,3cc6 <_Z16matrixOperationsIfEvv+0xdb0>
    3cc0:	0434c583          	lbu	a1,67(s1)
    3cc4:	a811                	j	3cd8 <_Z16matrixOperationsIfEvv+0xdc2>
    3cc6:	8526                	mv	a0,s1
    3cc8:	919fd0ef          	jal	15e0 <_ZNKSt5ctypeIcE13_M_widen_initEv@plt>
    3ccc:	6088                	ld	a0,0(s1)
    3cce:	7910                	ld	a2,48(a0)
    3cd0:	45a9                	li	a1,10
    3cd2:	8526                	mv	a0,s1
    3cd4:	9602                	jalr	a2
    3cd6:	85aa                	mv	a1,a0
    3cd8:	8522                	mv	a0,s0
    3cda:	817fd0ef          	jal	14f0 <_ZNSo3putEc@plt>
    3cde:	8a3fd0ef          	jal	1580 <_ZNSo5flushEv@plt>
    3ce2:	750a                	ld	a0,160(sp)
    3ce4:	90dfd0ef          	jal	15f0 <free@plt>
    3ce8:	0588                	add	a0,sp,704
    3cea:	f12a                	sd	a0,160(sp)
    3cec:	08a8                	add	a0,sp,88
    3cee:	110c                	add	a1,sp,160
    3cf0:	70f240ef          	jal	28bfe <_ZN5Eigen15PlainObjectBaseINS_6MatrixIfLin1ELin1ELi0ELin1ELin1EEEEC2INS_12CwiseUnaryOpINS_8internal13scalar_exp_opIfEEKNS_12ArrayWrapperIS2_EEEEEERKNS_9DenseBaseIT_EE>
    3cf4:	00048517          	auipc	a0,0x48
    3cf8:	49453503          	ld	a0,1172(a0) # 4c188 <_ZSt4cout@GLIBCXX_3.4>
    3cfc:	00026597          	auipc	a1,0x26
    3d00:	e1758593          	add	a1,a1,-489 # 29b13 <_IO_stdin_used+0x22b>
    3d04:	467d                	li	a2,31
    3d06:	8cbfd0ef          	jal	15d0 <_ZSt16__ostream_insertIcSt11char_traitsIcEERSt13basic_ostreamIT_T0_ES6_PKS3_l@plt>
    3d0a:	00048517          	auipc	a0,0x48
    3d0e:	47e53503          	ld	a0,1150(a0) # 4c188 <_ZSt4cout@GLIBCXX_3.4>
    3d12:	08ac                	add	a1,sp,88
    3d14:	34e130ef          	jal	17062 <_ZN5EigenlsINS_6MatrixIfLin1ELin1ELi0ELin1ELin1EEEEERSoS3_RKNS_9DenseBaseIT_EE>
    3d18:	842a                	mv	s0,a0
    3d1a:	6108                	ld	a0,0(a0)
    3d1c:	fe853503          	ld	a0,-24(a0)
    3d20:	9522                	add	a0,a0,s0
    3d22:	7964                	ld	s1,240(a0)
    3d24:	68048063          	beqz	s1,43a4 <_Z16matrixOperationsIfEvv+0x148e>
    3d28:	0384c503          	lbu	a0,56(s1)
    3d2c:	c501                	beqz	a0,3d34 <_Z16matrixOperationsIfEvv+0xe1e>
    3d2e:	0434c583          	lbu	a1,67(s1)
    3d32:	a811                	j	3d46 <_Z16matrixOperationsIfEvv+0xe30>
    3d34:	8526                	mv	a0,s1
    3d36:	8abfd0ef          	jal	15e0 <_ZNKSt5ctypeIcE13_M_widen_initEv@plt>
    3d3a:	6088                	ld	a0,0(s1)
    3d3c:	7910                	ld	a2,48(a0)
    3d3e:	45a9                	li	a1,10
    3d40:	8526                	mv	a0,s1
    3d42:	9602                	jalr	a2
    3d44:	85aa                	mv	a1,a0
    3d46:	8522                	mv	a0,s0
    3d48:	fa8fd0ef          	jal	14f0 <_ZNSo3putEc@plt>
    3d4c:	835fd0ef          	jal	1580 <_ZNSo5flushEv@plt>
    3d50:	0588                	add	a0,sp,704
    3d52:	f12a                	sd	a0,160(sp)
    3d54:	0088                	add	a0,sp,64
    3d56:	110c                	add	a1,sp,160
    3d58:	22a250ef          	jal	28f82 <_ZN5Eigen15PlainObjectBaseINS_6MatrixIfLin1ELin1ELi0ELin1ELin1EEEEC2INS_12CwiseUnaryOpINS_8internal13scalar_abs_opIfEEKNS_12ArrayWrapperIS2_EEEEEERKNS_9DenseBaseIT_EE>
    3d5c:	00048517          	auipc	a0,0x48
    3d60:	42c53503          	ld	a0,1068(a0) # 4c188 <_ZSt4cout@GLIBCXX_3.4>
    3d64:	00026597          	auipc	a1,0x26
    3d68:	dcf58593          	add	a1,a1,-561 # 29b33 <_IO_stdin_used+0x24b>
    3d6c:	02200613          	li	a2,34
    3d70:	861fd0ef          	jal	15d0 <_ZSt16__ostream_insertIcSt11char_traitsIcEERSt13basic_ostreamIT_T0_ES6_PKS3_l@plt>
    3d74:	00048517          	auipc	a0,0x48
    3d78:	41453503          	ld	a0,1044(a0) # 4c188 <_ZSt4cout@GLIBCXX_3.4>
    3d7c:	008c                	add	a1,sp,64
    3d7e:	2e4130ef          	jal	17062 <_ZN5EigenlsINS_6MatrixIfLin1ELin1ELi0ELin1ELin1EEEEERSoS3_RKNS_9DenseBaseIT_EE>
    3d82:	842a                	mv	s0,a0
    3d84:	6108                	ld	a0,0(a0)
    3d86:	fe853503          	ld	a0,-24(a0)
    3d8a:	9522                	add	a0,a0,s0
    3d8c:	7964                	ld	s1,240(a0)
    3d8e:	60048d63          	beqz	s1,43a8 <_Z16matrixOperationsIfEvv+0x1492>
    3d92:	0384c503          	lbu	a0,56(s1)
    3d96:	c501                	beqz	a0,3d9e <_Z16matrixOperationsIfEvv+0xe88>
    3d98:	0434c583          	lbu	a1,67(s1)
    3d9c:	a811                	j	3db0 <_Z16matrixOperationsIfEvv+0xe9a>
    3d9e:	8526                	mv	a0,s1
    3da0:	841fd0ef          	jal	15e0 <_ZNKSt5ctypeIcE13_M_widen_initEv@plt>
    3da4:	6088                	ld	a0,0(s1)
    3da6:	7910                	ld	a2,48(a0)
    3da8:	45a9                	li	a1,10
    3daa:	8526                	mv	a0,s1
    3dac:	9602                	jalr	a2
    3dae:	85aa                	mv	a1,a0
    3db0:	8522                	mv	a0,s0
    3db2:	f3efd0ef          	jal	14f0 <_ZNSo3putEc@plt>
    3db6:	fcafd0ef          	jal	1580 <_ZNSo5flushEv@plt>
    3dba:	2c013503          	ld	a0,704(sp)
    3dbe:	2d013583          	ld	a1,720(sp)
    3dc2:	f12a                	sd	a0,160(sp)
    3dc4:	00a03533          	snez	a0,a0
    3dc8:	0005a613          	slti	a2,a1,0
    3dcc:	8d71                	and	a0,a0,a2
    3dce:	f92e                	sd	a1,176(sp)
    3dd0:	5c051e63          	bnez	a0,43ac <_Z16matrixOperationsIfEvv+0x1496>
    3dd4:	0588                	add	a0,sp,704
    3dd6:	fd2a                	sd	a0,184(sp)
    3dd8:	2c813503          	ld	a0,712(sp)
    3ddc:	e182                	sd	zero,192(sp)
    3dde:	e582                	sd	zero,200(sp)
    3de0:	4585                	li	a1,1
    3de2:	e9ae                	sd	a1,208(sp)
    3de4:	5ea05463          	blez	a0,43cc <_Z16matrixOperationsIfEvv+0x14b6>
    3de8:	1808                	add	a0,sp,48
    3dea:	110c                	add	a1,sp,160
    3dec:	3a4250ef          	jal	29190 <_ZN5Eigen15PlainObjectBaseINS_6MatrixIfLi1ELin1ELi1ELi1ELin1EEEEC2INS_5BlockINS1_IfLin1ELin1ELi0ELin1ELin1EEELi1ELin1ELb0EEEEERKNS_9DenseBaseIT_EE>
    3df0:	2c013583          	ld	a1,704(sp)
    3df4:	2c813503          	ld	a0,712(sp)
    3df8:	f12e                	sd	a1,160(sp)
    3dfa:	00b035b3          	snez	a1,a1
    3dfe:	00052613          	slti	a2,a0,0
    3e02:	8df1                	and	a1,a1,a2
    3e04:	f52a                	sd	a0,168(sp)
    3e06:	5e059363          	bnez	a1,43ec <_Z16matrixOperationsIfEvv+0x14d6>
    3e0a:	058c                	add	a1,sp,704
    3e0c:	2d013603          	ld	a2,720(sp)
    3e10:	fd2e                	sd	a1,184(sp)
    3e12:	e182                	sd	zero,192(sp)
    3e14:	e582                	sd	zero,200(sp)
    3e16:	e9aa                	sd	a0,208(sp)
    3e18:	5ec05a63          	blez	a2,440c <_Z16matrixOperationsIfEvv+0x14f6>
    3e1c:	1008                	add	a0,sp,32
    3e1e:	110c                	add	a1,sp,160
    3e20:	514250ef          	jal	29334 <_ZN5Eigen15PlainObjectBaseINS_6MatrixIfLin1ELi1ELi0ELin1ELi1EEEEC2INS_5BlockINS1_IfLin1ELin1ELi0ELin1ELin1EEELin1ELi1ELb1EEEEERKNS_9DenseBaseIT_EE>
    3e24:	00048517          	auipc	a0,0x48
    3e28:	36453503          	ld	a0,868(a0) # 4c188 <_ZSt4cout@GLIBCXX_3.4>
    3e2c:	00026597          	auipc	a1,0x26
    3e30:	d2a58593          	add	a1,a1,-726 # 29b56 <_IO_stdin_used+0x26e>
    3e34:	4641                	li	a2,16
    3e36:	f9afd0ef          	jal	15d0 <_ZSt16__ostream_insertIcSt11char_traitsIcEERSt13basic_ostreamIT_T0_ES6_PKS3_l@plt>
    3e3a:	00048517          	auipc	a0,0x48
    3e3e:	34e53503          	ld	a0,846(a0) # 4c188 <_ZSt4cout@GLIBCXX_3.4>
    3e42:	180c                	add	a1,sp,48
    3e44:	1b2140ef          	jal	17ff6 <_ZN5EigenlsINS_6MatrixIfLi1ELin1ELi1ELi1ELin1EEEEERSoS3_RKNS_9DenseBaseIT_EE>
    3e48:	842a                	mv	s0,a0
    3e4a:	6108                	ld	a0,0(a0)
    3e4c:	fe853503          	ld	a0,-24(a0)
    3e50:	9522                	add	a0,a0,s0
    3e52:	7964                	ld	s1,240(a0)
    3e54:	3e048a63          	beqz	s1,4248 <_Z16matrixOperationsIfEvv+0x1332>
    3e58:	0384c503          	lbu	a0,56(s1)
    3e5c:	c501                	beqz	a0,3e64 <_Z16matrixOperationsIfEvv+0xf4e>
    3e5e:	0434c583          	lbu	a1,67(s1)
    3e62:	a811                	j	3e76 <_Z16matrixOperationsIfEvv+0xf60>
    3e64:	8526                	mv	a0,s1
    3e66:	f7afd0ef          	jal	15e0 <_ZNKSt5ctypeIcE13_M_widen_initEv@plt>
    3e6a:	6088                	ld	a0,0(s1)
    3e6c:	7910                	ld	a2,48(a0)
    3e6e:	45a9                	li	a1,10
    3e70:	8526                	mv	a0,s1
    3e72:	9602                	jalr	a2
    3e74:	85aa                	mv	a1,a0
    3e76:	8522                	mv	a0,s0
    3e78:	e78fd0ef          	jal	14f0 <_ZNSo3putEc@plt>
    3e7c:	f04fd0ef          	jal	1580 <_ZNSo5flushEv@plt>
    3e80:	00048517          	auipc	a0,0x48
    3e84:	30853503          	ld	a0,776(a0) # 4c188 <_ZSt4cout@GLIBCXX_3.4>
    3e88:	00026597          	auipc	a1,0x26
    3e8c:	cdf58593          	add	a1,a1,-801 # 29b67 <_IO_stdin_used+0x27f>
    3e90:	464d                	li	a2,19
    3e92:	f3efd0ef          	jal	15d0 <_ZSt16__ostream_insertIcSt11char_traitsIcEERSt13basic_ostreamIT_T0_ES6_PKS3_l@plt>
    3e96:	00048517          	auipc	a0,0x48
    3e9a:	2f253503          	ld	a0,754(a0) # 4c188 <_ZSt4cout@GLIBCXX_3.4>
    3e9e:	100c                	add	a1,sp,32
    3ea0:	302140ef          	jal	181a2 <_ZN5EigenlsINS_6MatrixIfLin1ELi1ELi0ELin1ELi1EEEEERSoS3_RKNS_9DenseBaseIT_EE>
    3ea4:	842a                	mv	s0,a0
    3ea6:	6108                	ld	a0,0(a0)
    3ea8:	fe853503          	ld	a0,-24(a0)
    3eac:	9522                	add	a0,a0,s0
    3eae:	7964                	ld	s1,240(a0)
    3eb0:	38048c63          	beqz	s1,4248 <_Z16matrixOperationsIfEvv+0x1332>
    3eb4:	0384c503          	lbu	a0,56(s1)
    3eb8:	c501                	beqz	a0,3ec0 <_Z16matrixOperationsIfEvv+0xfaa>
    3eba:	0434c583          	lbu	a1,67(s1)
    3ebe:	a811                	j	3ed2 <_Z16matrixOperationsIfEvv+0xfbc>
    3ec0:	8526                	mv	a0,s1
    3ec2:	f1efd0ef          	jal	15e0 <_ZNKSt5ctypeIcE13_M_widen_initEv@plt>
    3ec6:	6088                	ld	a0,0(s1)
    3ec8:	7910                	ld	a2,48(a0)
    3eca:	45a9                	li	a1,10
    3ecc:	8526                	mv	a0,s1
    3ece:	9602                	jalr	a2
    3ed0:	85aa                	mv	a1,a0
    3ed2:	8522                	mv	a0,s0
    3ed4:	e1cfd0ef          	jal	14f0 <_ZNSo3putEc@plt>
    3ed8:	ea8fd0ef          	jal	1580 <_ZNSo5flushEv@plt>
    3edc:	0588                	add	a0,sp,704
    3ede:	e02a                	sd	a0,0(sp)
    3ee0:	850a                	mv	a0,sp
    3ee2:	f12a                	sd	a0,160(sp)
    3ee4:	2b013f83          	ld	t6,688(sp)
    3ee8:	2c013383          	ld	t2,704(sp)
    3eec:	2b813303          	ld	t1,696(sp)
    3ef0:	f502                	sd	zero,168(sp)
    3ef2:	f97e                	sd	t6,176(sp)
    3ef4:	00703533          	snez	a0,t2
    3ef8:	01f365b3          	or	a1,t1,t6
    3efc:	0005a593          	slti	a1,a1,0
    3f00:	8de9                	and	a1,a1,a0
    3f02:	fd1a                	sd	t1,184(sp)
    3f04:	52059463          	bnez	a1,442c <_Z16matrixOperationsIfEvv+0x1516>
    3f08:	34034263          	bltz	t1,424c <_Z16matrixOperationsIfEvv+0x1336>
    3f0c:	2d013803          	ld	a6,720(sp)
    3f10:	2c813883          	ld	a7,712(sp)
    3f14:	006825b3          	slt	a1,a6,t1
    3f18:	000fa613          	slti	a2,t6,0
    3f1c:	8dd1                	or	a1,a1,a2
    3f1e:	01f8a633          	slt	a2,a7,t6
    3f22:	8dd1                	or	a1,a1,a2
    3f24:	32059463          	bnez	a1,424c <_Z16matrixOperationsIfEvv+0x1336>
    3f28:	2a813e03          	ld	t3,680(sp)
    3f2c:	007e45b3          	xor	a1,t3,t2
    3f30:	0015b593          	seqz	a1,a1
    3f34:	8d6d                	and	a0,a0,a1
    3f36:	50051b63          	bnez	a0,444c <_Z16matrixOperationsIfEvv+0x1536>
    3f3a:	00133513          	seqz	a0,t1
    3f3e:	001fb593          	seqz	a1,t6
    3f42:	8d4d                	or	a0,a0,a1
    3f44:	ed49                	bnez	a0,3fde <_Z16matrixOperationsIfEvv+0x10c8>
    3f46:	c22027f3          	csrr	a5,vlenb
    3f4a:	0017d493          	srl	s1,a5,0x1
    3f4e:	4521                	li	a0,8
    3f50:	82a6                	mv	t0,s1
    3f52:	00956363          	bltu	a0,s1,3f58 <_Z16matrixOperationsIfEvv+0x1042>
    3f56:	42a1                	li	t0,8
    3f58:	4a01                	li	s4,0
    3f5a:	4501                	li	a0,0
    3f5c:	4401                	li	s0,0
    3f5e:	00289e93          	sll	t4,a7,0x2
    3f62:	002f9f13          	sll	t5,t6,0x2
    3f66:	00179693          	sll	a3,a5,0x1
    3f6a:	8972                	mv	s2,t3
    3f6c:	899e                	mv	s3,t2
    3f6e:	a801                	j	3f7e <_Z16matrixOperationsIfEvv+0x1068>
    3f70:	0405                	add	s0,s0,1
    3f72:	99f6                	add	s3,s3,t4
    3f74:	997a                	add	s2,s2,t5
    3f76:	957e                	add	a0,a0,t6
    3f78:	9a46                	add	s4,s4,a7
    3f7a:	06640263          	beq	s0,t1,3fde <_Z16matrixOperationsIfEvv+0x10c8>
    3f7e:	005feb63          	bltu	t6,t0,3f94 <_Z16matrixOperationsIfEvv+0x107e>
    3f82:	028f05b3          	mul	a1,t5,s0
    3f86:	95f2                	add	a1,a1,t3
    3f88:	028e8633          	mul	a2,t4,s0
    3f8c:	961e                	add	a2,a2,t2
    3f8e:	8e0d                	sub	a2,a2,a1
    3f90:	02d67563          	bgeu	a2,a3,3fba <_Z16matrixOperationsIfEvv+0x10a4>
    3f94:	4701                	li	a4,0
    3f96:	40ef8633          	sub	a2,t6,a4
    3f9a:	00a705b3          	add	a1,a4,a0
    3f9e:	058a                	sll	a1,a1,0x2
    3fa0:	95f2                	add	a1,a1,t3
    3fa2:	9752                	add	a4,a4,s4
    3fa4:	070a                	sll	a4,a4,0x2
    3fa6:	971e                	add	a4,a4,t2
    3fa8:	0005a787          	flw	fa5,0(a1)
    3fac:	00f72027          	fsw	fa5,0(a4)
    3fb0:	167d                	add	a2,a2,-1
    3fb2:	0591                	add	a1,a1,4
    3fb4:	0711                	add	a4,a4,4
    3fb6:	fa6d                	bnez	a2,3fa8 <_Z16matrixOperationsIfEvv+0x1092>
    3fb8:	bf65                	j	3f70 <_Z16matrixOperationsIfEvv+0x105a>
    3fba:	409005b3          	neg	a1,s1
    3fbe:	00bff733          	and	a4,t6,a1
    3fc2:	85ba                	mv	a1,a4
    3fc4:	864a                	mv	a2,s2
    3fc6:	87ce                	mv	a5,s3
    3fc8:	22866407          	.insn	4, 0x22866407
    3fcc:	22878427          	.insn	4, 0x22878427
    3fd0:	97b6                	add	a5,a5,a3
    3fd2:	8d85                	sub	a1,a1,s1
    3fd4:	9636                	add	a2,a2,a3
    3fd6:	f9ed                	bnez	a1,3fc8 <_Z16matrixOperationsIfEvv+0x10b2>
    3fd8:	f8ef8ce3          	beq	t6,a4,3f70 <_Z16matrixOperationsIfEvv+0x105a>
    3fdc:	bf6d                	j	3f96 <_Z16matrixOperationsIfEvv+0x1080>
    3fde:	01030463          	beq	t1,a6,3fe6 <_Z16matrixOperationsIfEvv+0x10d0>
    3fe2:	28089563          	bnez	a7,426c <_Z16matrixOperationsIfEvv+0x1356>
    3fe6:	291f9363          	bne	t6,a7,426c <_Z16matrixOperationsIfEvv+0x1356>
    3fea:	0028                	add	a0,sp,8
    3fec:	858a                	mv	a1,sp
    3fee:	32a170ef          	jal	1b318 <_ZN5Eigen15PlainObjectBaseINS_6MatrixIfLin1ELin1ELi0ELin1ELin1EEEEC2INS_9TransposeIS2_EEEERKNS_9DenseBaseIT_EE>
    3ff2:	750a                	ld	a0,160(sp)
    3ff4:	6108                	ld	a0,0(a0)
    3ff6:	75aa                	ld	a1,168(sp)
    3ff8:	766a                	ld	a2,184(sp)
    3ffa:	6914                	ld	a3,16(a0)
    3ffc:	6508                	ld	a0,8(a0)
    3ffe:	95b2                	add	a1,a1,a2
    4000:	00d58463          	beq	a1,a3,4008 <_Z16matrixOperationsIfEvv+0x10f2>
    4004:	28051463          	bnez	a0,428c <_Z16matrixOperationsIfEvv+0x1376>
    4008:	75ca                	ld	a1,176(sp)
    400a:	28a59163          	bne	a1,a0,428c <_Z16matrixOperationsIfEvv+0x1376>
    400e:	00048517          	auipc	a0,0x48
    4012:	17a53503          	ld	a0,378(a0) # 4c188 <_ZSt4cout@GLIBCXX_3.4>
    4016:	00026597          	auipc	a1,0x26
    401a:	b6558593          	add	a1,a1,-1179 # 29b7b <_IO_stdin_used+0x293>
    401e:	4655                	li	a2,21
    4020:	db0fd0ef          	jal	15d0 <_ZSt16__ostream_insertIcSt11char_traitsIcEERSt13basic_ostreamIT_T0_ES6_PKS3_l@plt>
    4024:	00048517          	auipc	a0,0x48
    4028:	16453503          	ld	a0,356(a0) # 4c188 <_ZSt4cout@GLIBCXX_3.4>
    402c:	002c                	add	a1,sp,8
    402e:	034130ef          	jal	17062 <_ZN5EigenlsINS_6MatrixIfLin1ELin1ELi0ELin1ELin1EEEEERSoS3_RKNS_9DenseBaseIT_EE>
    4032:	842a                	mv	s0,a0
    4034:	6108                	ld	a0,0(a0)
    4036:	fe853503          	ld	a0,-24(a0)
    403a:	9522                	add	a0,a0,s0
    403c:	7964                	ld	s1,240(a0)
    403e:	42048763          	beqz	s1,446c <_Z16matrixOperationsIfEvv+0x1556>
    4042:	0384c503          	lbu	a0,56(s1)
    4046:	c501                	beqz	a0,404e <_Z16matrixOperationsIfEvv+0x1138>
    4048:	0434c583          	lbu	a1,67(s1)
    404c:	a811                	j	4060 <_Z16matrixOperationsIfEvv+0x114a>
    404e:	8526                	mv	a0,s1
    4050:	d90fd0ef          	jal	15e0 <_ZNKSt5ctypeIcE13_M_widen_initEv@plt>
    4054:	6088                	ld	a0,0(s1)
    4056:	7910                	ld	a2,48(a0)
    4058:	45a9                	li	a1,10
    405a:	8526                	mv	a0,s1
    405c:	9602                	jalr	a2
    405e:	85aa                	mv	a1,a0
    4060:	8522                	mv	a0,s0
    4062:	c8efd0ef          	jal	14f0 <_ZNSo3putEc@plt>
    4066:	d1afd0ef          	jal	1580 <_ZNSo5flushEv@plt>
    406a:	6522                	ld	a0,8(sp)
    406c:	d84fd0ef          	jal	15f0 <free@plt>
    4070:	7502                	ld	a0,32(sp)
    4072:	d7efd0ef          	jal	15f0 <free@plt>
    4076:	7542                	ld	a0,48(sp)
    4078:	d78fd0ef          	jal	15f0 <free@plt>
    407c:	6506                	ld	a0,64(sp)
    407e:	d72fd0ef          	jal	15f0 <free@plt>
    4082:	6566                	ld	a0,88(sp)
    4084:	d6cfd0ef          	jal	15f0 <free@plt>
    4088:	7546                	ld	a0,112(sp)
    408a:	d66fd0ef          	jal	15f0 <free@plt>
    408e:	652a                	ld	a0,136(sp)
    4090:	d60fd0ef          	jal	15f0 <free@plt>
    4094:	754e                	ld	a0,240(sp)
    4096:	d5afd0ef          	jal	15f0 <free@plt>
    409a:	755e                	ld	a0,496(sp)
    409c:	d54fd0ef          	jal	15f0 <free@plt>
    40a0:	657e                	ld	a0,472(sp)
    40a2:	d4efd0ef          	jal	15f0 <free@plt>
    40a6:	755a                	ld	a0,432(sp)
    40a8:	d48fd0ef          	jal	15f0 <free@plt>
    40ac:	751a                	ld	a0,416(sp)
    40ae:	d42fd0ef          	jal	15f0 <free@plt>
    40b2:	653a                	ld	a0,392(sp)
    40b4:	d3cfd0ef          	jal	15f0 <free@plt>
    40b8:	7576                	ld	a0,376(sp)
    40ba:	d36fd0ef          	jal	15f0 <free@plt>
    40be:	7516                	ld	a0,352(sp)
    40c0:	d30fd0ef          	jal	15f0 <free@plt>
    40c4:	6536                	ld	a0,328(sp)
    40c6:	d2afd0ef          	jal	15f0 <free@plt>
    40ca:	7552                	ld	a0,304(sp)
    40cc:	d24fd0ef          	jal	15f0 <free@plt>
    40d0:	6572                	ld	a0,280(sp)
    40d2:	d1efd0ef          	jal	15f0 <free@plt>
    40d6:	20013503          	ld	a0,512(sp)
    40da:	d16fd0ef          	jal	15f0 <free@plt>
    40de:	21813503          	ld	a0,536(sp)
    40e2:	d0efd0ef          	jal	15f0 <free@plt>
    40e6:	23013503          	ld	a0,560(sp)
    40ea:	d06fd0ef          	jal	15f0 <free@plt>
    40ee:	24813503          	ld	a0,584(sp)
    40f2:	cfefd0ef          	jal	15f0 <free@plt>
    40f6:	26013503          	ld	a0,608(sp)
    40fa:	cf6fd0ef          	jal	15f0 <free@plt>
    40fe:	27813503          	ld	a0,632(sp)
    4102:	ceefd0ef          	jal	15f0 <free@plt>
    4106:	29013503          	ld	a0,656(sp)
    410a:	ce6fd0ef          	jal	15f0 <free@plt>
    410e:	2a813503          	ld	a0,680(sp)
    4112:	cdefd0ef          	jal	15f0 <free@plt>
    4116:	2c013503          	ld	a0,704(sp)
    411a:	cd6fd0ef          	jal	15f0 <free@plt>
    411e:	30813083          	ld	ra,776(sp)
    4122:	30013403          	ld	s0,768(sp)
    4126:	2f813483          	ld	s1,760(sp)
    412a:	2f013903          	ld	s2,752(sp)
    412e:	2e813983          	ld	s3,744(sp)
    4132:	2e013a03          	ld	s4,736(sp)
    4136:	2d813407          	fld	fs0,728(sp)
    413a:	31010113          	add	sp,sp,784
    413e:	8082                	ret
    4140:	cd0fd0ef          	jal	1610 <_ZSt16__throw_bad_castv@plt>
    4144:	00026517          	auipc	a0,0x26
    4148:	63c50513          	add	a0,a0,1596 # 2a780 <_IO_stdin_used+0xe98>
    414c:	00026597          	auipc	a1,0x26
    4150:	66d58593          	add	a1,a1,1645 # 2a7b9 <_IO_stdin_used+0xed1>
    4154:	00035617          	auipc	a2,0x35
    4158:	46a60693          	add	a3,a2,1130 # 395be <_IO_stdin_used+0xfcd6>
    415c:	06e00613          	li	a2,110
    4160:	c50fd0ef          	jal	15b0 <__assert_fail@plt>
    4164:	00026517          	auipc	a0,0x26
    4168:	61c50513          	add	a0,a0,1564 # 2a780 <_IO_stdin_used+0xe98>
    416c:	00026597          	auipc	a1,0x26
    4170:	64d58593          	add	a1,a1,1613 # 2a7b9 <_IO_stdin_used+0xed1>
    4174:	00035617          	auipc	a2,0x35
    4178:	6d560693          	add	a3,a2,1749 # 39849 <_IO_stdin_used+0xff61>
    417c:	06e00613          	li	a2,110
    4180:	c30fd0ef          	jal	15b0 <__assert_fail@plt>
    4184:	00026517          	auipc	a0,0x26
    4188:	5fc50513          	add	a0,a0,1532 # 2a780 <_IO_stdin_used+0xe98>
    418c:	00026597          	auipc	a1,0x26
    4190:	62d58593          	add	a1,a1,1581 # 2a7b9 <_IO_stdin_used+0xed1>
    4194:	00036617          	auipc	a2,0x36
    4198:	95560693          	add	a3,a2,-1707 # 39ae9 <_IO_stdin_used+0x10201>
    419c:	06e00613          	li	a2,110
    41a0:	c10fd0ef          	jal	15b0 <__assert_fail@plt>
    41a4:	00026517          	auipc	a0,0x26
    41a8:	5dc50513          	add	a0,a0,1500 # 2a780 <_IO_stdin_used+0xe98>
    41ac:	00026597          	auipc	a1,0x26
    41b0:	60d58593          	add	a1,a1,1549 # 2a7b9 <_IO_stdin_used+0xed1>
    41b4:	00036617          	auipc	a2,0x36
    41b8:	c4a60693          	add	a3,a2,-950 # 39dfe <_IO_stdin_used+0x10516>
    41bc:	06e00613          	li	a2,110
    41c0:	bf0fd0ef          	jal	15b0 <__assert_fail@plt>
    41c4:	00026517          	auipc	a0,0x26
    41c8:	5bc50513          	add	a0,a0,1468 # 2a780 <_IO_stdin_used+0xe98>
    41cc:	00026597          	auipc	a1,0x26
    41d0:	5ed58593          	add	a1,a1,1517 # 2a7b9 <_IO_stdin_used+0xed1>
    41d4:	00036617          	auipc	a2,0x36
    41d8:	f4260693          	add	a3,a2,-190 # 3a116 <_IO_stdin_used+0x1082e>
    41dc:	06e00613          	li	a2,110
    41e0:	bd0fd0ef          	jal	15b0 <__assert_fail@plt>
    41e4:	00026517          	auipc	a0,0x26
    41e8:	59c50513          	add	a0,a0,1436 # 2a780 <_IO_stdin_used+0xe98>
    41ec:	00026597          	auipc	a1,0x26
    41f0:	5cd58593          	add	a1,a1,1485 # 2a7b9 <_IO_stdin_used+0xed1>
    41f4:	00036617          	auipc	a2,0x36
    41f8:	22b60693          	add	a3,a2,555 # 3a41f <_IO_stdin_used+0x10b37>
    41fc:	06e00613          	li	a2,110
    4200:	bb0fd0ef          	jal	15b0 <__assert_fail@plt>
    4204:	c0cfd0ef          	jal	1610 <_ZSt16__throw_bad_castv@plt>
    4208:	00027517          	auipc	a0,0x27
    420c:	95b50513          	add	a0,a0,-1701 # 2ab63 <_IO_stdin_used+0x127b>
    4210:	00027597          	auipc	a1,0x27
    4214:	99758593          	add	a1,a1,-1641 # 2aba7 <_IO_stdin_used+0x12bf>
    4218:	00040617          	auipc	a2,0x40
    421c:	d9b60693          	add	a3,a2,-613 # 43fb3 <_IO_stdin_used+0x1a6cb>
    4220:	19d00613          	li	a2,413
    4224:	b8cfd0ef          	jal	15b0 <__assert_fail@plt>
    4228:	00027517          	auipc	a0,0x27
    422c:	93b50513          	add	a0,a0,-1733 # 2ab63 <_IO_stdin_used+0x127b>
    4230:	00027597          	auipc	a1,0x27
    4234:	97758593          	add	a1,a1,-1673 # 2aba7 <_IO_stdin_used+0x12bf>
    4238:	00040617          	auipc	a2,0x40
    423c:	d7b60693          	add	a3,a2,-645 # 43fb3 <_IO_stdin_used+0x1a6cb>
    4240:	19d00613          	li	a2,413
    4244:	b6cfd0ef          	jal	15b0 <__assert_fail@plt>
    4248:	bc8fd0ef          	jal	1610 <_ZSt16__throw_bad_castv@plt>
    424c:	00029517          	auipc	a0,0x29
    4250:	51f50513          	add	a0,a0,1311 # 2d76b <_IO_stdin_used+0x3e83>
    4254:	00026597          	auipc	a1,0x26
    4258:	22658593          	add	a1,a1,550 # 2a47a <_IO_stdin_used+0xb92>
    425c:	00041617          	auipc	a2,0x41
    4260:	ce960693          	add	a3,a2,-791 # 44f45 <_IO_stdin_used+0x1b65d>
    4264:	09300613          	li	a2,147
    4268:	b48fd0ef          	jal	15b0 <__assert_fail@plt>
    426c:	00034517          	auipc	a0,0x34
    4270:	fab50513          	add	a0,a0,-85 # 38217 <_IO_stdin_used+0xe92f>
    4274:	00034597          	auipc	a1,0x34
    4278:	04158593          	add	a1,a1,65 # 382b5 <_IO_stdin_used+0xe9cd>
    427c:	00041617          	auipc	a2,0x41
    4280:	fe960693          	add	a3,a2,-23 # 45265 <_IO_stdin_used+0x1b97d>
    4284:	07800613          	li	a2,120
    4288:	b28fd0ef          	jal	15b0 <__assert_fail@plt>
    428c:	00034517          	auipc	a0,0x34
    4290:	f8b50513          	add	a0,a0,-117 # 38217 <_IO_stdin_used+0xe92f>
    4294:	00034597          	auipc	a1,0x34
    4298:	02158593          	add	a1,a1,33 # 382b5 <_IO_stdin_used+0xe9cd>
    429c:	00041617          	auipc	a2,0x41
    42a0:	fc960693          	add	a3,a2,-55 # 45265 <_IO_stdin_used+0x1b97d>
    42a4:	07800613          	li	a2,120
    42a8:	b08fd0ef          	jal	15b0 <__assert_fail@plt>
    42ac:	00026517          	auipc	a0,0x26
    42b0:	e9350513          	add	a0,a0,-365 # 2a13f <_IO_stdin_used+0x857>
    42b4:	00026597          	auipc	a1,0x26
    42b8:	f1758593          	add	a1,a1,-233 # 2a1cb <_IO_stdin_used+0x8e3>
    42bc:	00034617          	auipc	a2,0x34
    42c0:	26460693          	add	a3,a2,612 # 38520 <_IO_stdin_used+0xec38>
    42c4:	06100613          	li	a2,97
    42c8:	ae8fd0ef          	jal	15b0 <__assert_fail@plt>
    42cc:	b44fd0ef          	jal	1610 <_ZSt16__throw_bad_castv@plt>
    42d0:	b40fd0ef          	jal	1610 <_ZSt16__throw_bad_castv@plt>
    42d4:	b3cfd0ef          	jal	1610 <_ZSt16__throw_bad_castv@plt>
    42d8:	b38fd0ef          	jal	1610 <_ZSt16__throw_bad_castv@plt>
    42dc:	b34fd0ef          	jal	1610 <_ZSt16__throw_bad_castv@plt>
    42e0:	b30fd0ef          	jal	1610 <_ZSt16__throw_bad_castv@plt>
    42e4:	b2cfd0ef          	jal	1610 <_ZSt16__throw_bad_castv@plt>
    42e8:	b28fd0ef          	jal	1610 <_ZSt16__throw_bad_castv@plt>
    42ec:	00032517          	auipc	a0,0x32
    42f0:	59f50513          	add	a0,a0,1439 # 3688b <_IO_stdin_used+0xcfa3>
    42f4:	0002d597          	auipc	a1,0x2d
    42f8:	f7a58593          	add	a1,a1,-134 # 3126e <_IO_stdin_used+0x7986>
    42fc:	0003f617          	auipc	a2,0x3f
    4300:	6c760693          	add	a3,a2,1735 # 439c3 <_IO_stdin_used+0x1a0db>
    4304:	0f600613          	li	a2,246
    4308:	aa8fd0ef          	jal	15b0 <__assert_fail@plt>
    430c:	00029517          	auipc	a0,0x29
    4310:	9a350513          	add	a0,a0,-1629 # 2ccaf <_IO_stdin_used+0x33c7>
    4314:	00029597          	auipc	a1,0x29
    4318:	9ac58593          	add	a1,a1,-1620 # 2ccc0 <_IO_stdin_used+0x33d8>
    431c:	00036617          	auipc	a2,0x36
    4320:	63a60693          	add	a3,a2,1594 # 3a956 <_IO_stdin_used+0x1106e>
    4324:	05e00613          	li	a2,94
    4328:	a88fd0ef          	jal	15b0 <__assert_fail@plt>
    432c:	0002c517          	auipc	a0,0x2c
    4330:	1a150513          	add	a0,a0,417 # 304cd <_IO_stdin_used+0x6be5>
    4334:	0002c597          	auipc	a1,0x2c
    4338:	1d358593          	add	a1,a1,467 # 30507 <_IO_stdin_used+0x6c1f>
    433c:	0003a617          	auipc	a2,0x3a
    4340:	87760693          	add	a3,a2,-1929 # 3dbb3 <_IO_stdin_used+0x142cb>
    4344:	04b00613          	li	a2,75
    4348:	a68fd0ef          	jal	15b0 <__assert_fail@plt>
    434c:	ac4fd0ef          	jal	1610 <_ZSt16__throw_bad_castv@plt>
    4350:	ac0fd0ef          	jal	1610 <_ZSt16__throw_bad_castv@plt>
    4354:	00026517          	auipc	a0,0x26
    4358:	83d50513          	add	a0,a0,-1987 # 29b91 <_IO_stdin_used+0x2a9>
    435c:	00026597          	auipc	a1,0x26
    4360:	8ca58593          	add	a1,a1,-1846 # 29c26 <_IO_stdin_used+0x33e>
    4364:	00040617          	auipc	a2,0x40
    4368:	d1f60693          	add	a3,a2,-737 # 44083 <_IO_stdin_used+0x1a79b>
    436c:	04a00613          	li	a2,74
    4370:	a40fd0ef          	jal	15b0 <__assert_fail@plt>
    4374:	a9cfd0ef          	jal	1610 <_ZSt16__throw_bad_castv@plt>
    4378:	00026517          	auipc	a0,0x26
    437c:	81950513          	add	a0,a0,-2023 # 29b91 <_IO_stdin_used+0x2a9>
    4380:	00026597          	auipc	a1,0x26
    4384:	8a658593          	add	a1,a1,-1882 # 29c26 <_IO_stdin_used+0x33e>
    4388:	0003d617          	auipc	a2,0x3d
    438c:	3a060693          	add	a3,a2,928 # 41728 <_IO_stdin_used+0x17e40>
    4390:	04a00613          	li	a2,74
    4394:	a1cfd0ef          	jal	15b0 <__assert_fail@plt>
    4398:	a78fd0ef          	jal	1610 <_ZSt16__throw_bad_castv@plt>
    439c:	a74fd0ef          	jal	1610 <_ZSt16__throw_bad_castv@plt>
    43a0:	a70fd0ef          	jal	1610 <_ZSt16__throw_bad_castv@plt>
    43a4:	a6cfd0ef          	jal	1610 <_ZSt16__throw_bad_castv@plt>
    43a8:	a68fd0ef          	jal	1610 <_ZSt16__throw_bad_castv@plt>
    43ac:	00026517          	auipc	a0,0x26
    43b0:	1aa50513          	add	a0,a0,426 # 2a556 <_IO_stdin_used+0xc6e>
    43b4:	00026597          	auipc	a1,0x26
    43b8:	24c58593          	add	a1,a1,588 # 2a600 <_IO_stdin_used+0xd18>
    43bc:	0003a617          	auipc	a2,0x3a
    43c0:	f5360693          	add	a3,a2,-173 # 3e30f <_IO_stdin_used+0x14a27>
    43c4:	0b000613          	li	a2,176
    43c8:	9e8fd0ef          	jal	15b0 <__assert_fail@plt>
    43cc:	00026517          	auipc	a0,0x26
    43d0:	00750513          	add	a0,a0,7 # 2a3d3 <_IO_stdin_used+0xaeb>
    43d4:	00026597          	auipc	a1,0x26
    43d8:	0a658593          	add	a1,a1,166 # 2a47a <_IO_stdin_used+0xb92>
    43dc:	0003a617          	auipc	a2,0x3a
    43e0:	e9060693          	add	a3,a2,-368 # 3e26c <_IO_stdin_used+0x14984>
    43e4:	07a00613          	li	a2,122
    43e8:	9c8fd0ef          	jal	15b0 <__assert_fail@plt>
    43ec:	00026517          	auipc	a0,0x26
    43f0:	16a50513          	add	a0,a0,362 # 2a556 <_IO_stdin_used+0xc6e>
    43f4:	00026597          	auipc	a1,0x26
    43f8:	20c58593          	add	a1,a1,524 # 2a600 <_IO_stdin_used+0xd18>
    43fc:	00041617          	auipc	a2,0x41
    4400:	99360693          	add	a3,a2,-1645 # 44d8f <_IO_stdin_used+0x1b4a7>
    4404:	0b000613          	li	a2,176
    4408:	9a8fd0ef          	jal	15b0 <__assert_fail@plt>
    440c:	00026517          	auipc	a0,0x26
    4410:	fc750513          	add	a0,a0,-57 # 2a3d3 <_IO_stdin_used+0xaeb>
    4414:	00026597          	auipc	a1,0x26
    4418:	06658593          	add	a1,a1,102 # 2a47a <_IO_stdin_used+0xb92>
    441c:	00041617          	auipc	a2,0x41
    4420:	8c760693          	add	a3,a2,-1849 # 44ce3 <_IO_stdin_used+0x1b3fb>
    4424:	07a00613          	li	a2,122
    4428:	988fd0ef          	jal	15b0 <__assert_fail@plt>
    442c:	00026517          	auipc	a0,0x26
    4430:	12a50513          	add	a0,a0,298 # 2a556 <_IO_stdin_used+0xc6e>
    4434:	00026597          	auipc	a1,0x26
    4438:	1cc58593          	add	a1,a1,460 # 2a600 <_IO_stdin_used+0xd18>
    443c:	00041617          	auipc	a2,0x41
    4440:	be360693          	add	a3,a2,-1053 # 4501f <_IO_stdin_used+0x1b737>
    4444:	0b000613          	li	a2,176
    4448:	968fd0ef          	jal	15b0 <__assert_fail@plt>
    444c:	00028517          	auipc	a0,0x28
    4450:	4eb50513          	add	a0,a0,1259 # 2c937 <_IO_stdin_used+0x304f>
    4454:	00028597          	auipc	a1,0x28
    4458:	5f658593          	add	a1,a1,1526 # 2ca4a <_IO_stdin_used+0x3162>
    445c:	00041617          	auipc	a2,0x41
    4460:	c8b60693          	add	a3,a2,-885 # 450e7 <_IO_stdin_used+0x1b7ff>
    4464:	17c00613          	li	a2,380
    4468:	948fd0ef          	jal	15b0 <__assert_fail@plt>
    446c:	9a4fd0ef          	jal	1610 <_ZSt16__throw_bad_castv@plt>
    4470:	00029517          	auipc	a0,0x29
    4474:	83f50513          	add	a0,a0,-1985 # 2ccaf <_IO_stdin_used+0x33c7>
    4478:	0002c597          	auipc	a1,0x2c
    447c:	14f58593          	add	a1,a1,335 # 305c7 <_IO_stdin_used+0x6cdf>
    4480:	00039617          	auipc	a2,0x39
    4484:	7c360693          	add	a3,a2,1987 # 3dc43 <_IO_stdin_used+0x1435b>
    4488:	15200613          	li	a2,338
    448c:	924fd0ef          	jal	15b0 <__assert_fail@plt>
    4490:	980fd0ef          	jal	1610 <_ZSt16__throw_bad_castv@plt>
    4494:	97cfd0ef          	jal	1610 <_ZSt16__throw_bad_castv@plt>
    4498:	842a                	mv	s0,a0
    449a:	a209                	j	459c <_Z16matrixOperationsIfEvv+0x1686>
    449c:	842a                	mv	s0,a0
    449e:	1108                	add	a0,sp,160
    44a0:	6af130ef          	jal	1834e <_ZN5Eigen16CommaInitializerINS_9TransposeINS_6MatrixIfLin1ELin1ELi0ELin1ELin1EEEEEED2Ev>
    44a4:	a0e1                	j	456c <_Z16matrixOperationsIfEvv+0x1656>
    44a6:	842a                	mv	s0,a0
    44a8:	a0e9                	j	4572 <_Z16matrixOperationsIfEvv+0x165c>
    44aa:	842a                	mv	s0,a0
    44ac:	a0f1                	j	4578 <_Z16matrixOperationsIfEvv+0x1662>
    44ae:	842a                	mv	s0,a0
    44b0:	a0f9                	j	457e <_Z16matrixOperationsIfEvv+0x1668>
    44b2:	842a                	mv	s0,a0
    44b4:	a8c1                	j	4584 <_Z16matrixOperationsIfEvv+0x166e>
    44b6:	842a                	mv	s0,a0
    44b8:	a0f1                	j	4584 <_Z16matrixOperationsIfEvv+0x166e>
    44ba:	842a                	mv	s0,a0
    44bc:	a0f9                	j	458a <_Z16matrixOperationsIfEvv+0x1674>
    44be:	842a                	mv	s0,a0
    44c0:	a8c1                	j	4590 <_Z16matrixOperationsIfEvv+0x167a>
    44c2:	842a                	mv	s0,a0
    44c4:	a8c9                	j	4596 <_Z16matrixOperationsIfEvv+0x1680>
    44c6:	842a                	mv	s0,a0
    44c8:	a0f9                	j	4596 <_Z16matrixOperationsIfEvv+0x1680>
    44ca:	842a                	mv	s0,a0
    44cc:	a0e9                	j	4596 <_Z16matrixOperationsIfEvv+0x1680>
    44ce:	842a                	mv	s0,a0
    44d0:	a0f1                	j	459c <_Z16matrixOperationsIfEvv+0x1686>
    44d2:	842a                	mv	s0,a0
    44d4:	a8c1                	j	45a4 <_Z16matrixOperationsIfEvv+0x168e>
    44d6:	842a                	mv	s0,a0
    44d8:	a8d1                	j	45ac <_Z16matrixOperationsIfEvv+0x1696>
    44da:	842a                	mv	s0,a0
    44dc:	a8e1                	j	45b4 <_Z16matrixOperationsIfEvv+0x169e>
    44de:	842a                	mv	s0,a0
    44e0:	a8d1                	j	45b4 <_Z16matrixOperationsIfEvv+0x169e>
    44e2:	842a                	mv	s0,a0
    44e4:	a8e1                	j	45bc <_Z16matrixOperationsIfEvv+0x16a6>
    44e6:	842a                	mv	s0,a0
    44e8:	a8f1                	j	45c4 <_Z16matrixOperationsIfEvv+0x16ae>
    44ea:	842a                	mv	s0,a0
    44ec:	a0c5                	j	45cc <_Z16matrixOperationsIfEvv+0x16b6>
    44ee:	842a                	mv	s0,a0
    44f0:	a0d5                	j	45d4 <_Z16matrixOperationsIfEvv+0x16be>
    44f2:	842a                	mv	s0,a0
    44f4:	2c013503          	ld	a0,704(sp)
    44f8:	8f8fd0ef          	jal	15f0 <free@plt>
    44fc:	8522                	mv	a0,s0
    44fe:	9b2fd0ef          	jal	16b0 <_Unwind_Resume@plt>
    4502:	842a                	mv	s0,a0
    4504:	a861                	j	459c <_Z16matrixOperationsIfEvv+0x1686>
    4506:	65f2                	ld	a1,280(sp)
    4508:	842a                	mv	s0,a0
    450a:	852e                	mv	a0,a1
    450c:	8e4fd0ef          	jal	15f0 <free@plt>
    4510:	a071                	j	459c <_Z16matrixOperationsIfEvv+0x1686>
    4512:	65a2                	ld	a1,8(sp)
    4514:	842a                	mv	s0,a0
    4516:	852e                	mv	a0,a1
    4518:	8d8fd0ef          	jal	15f0 <free@plt>
    451c:	a881                	j	456c <_Z16matrixOperationsIfEvv+0x1656>
    451e:	842a                	mv	s0,a0
    4520:	a8a1                	j	4578 <_Z16matrixOperationsIfEvv+0x1662>
    4522:	842a                	mv	s0,a0
    4524:	a8a9                	j	457e <_Z16matrixOperationsIfEvv+0x1668>
    4526:	758a                	ld	a1,160(sp)
    4528:	842a                	mv	s0,a0
    452a:	852e                	mv	a0,a1
    452c:	a891                	j	4580 <_Z16matrixOperationsIfEvv+0x166a>
    452e:	842a                	mv	s0,a0
    4530:	a891                	j	4584 <_Z16matrixOperationsIfEvv+0x166e>
    4532:	842a                	mv	s0,a0
    4534:	a899                	j	458a <_Z16matrixOperationsIfEvv+0x1674>
    4536:	75ce                	ld	a1,240(sp)
    4538:	842a                	mv	s0,a0
    453a:	852e                	mv	a0,a1
    453c:	a899                	j	4592 <_Z16matrixOperationsIfEvv+0x167c>
    453e:	842a                	mv	s0,a0
    4540:	a899                	j	4596 <_Z16matrixOperationsIfEvv+0x1680>
    4542:	842a                	mv	s0,a0
    4544:	a889                	j	4596 <_Z16matrixOperationsIfEvv+0x1680>
    4546:	842a                	mv	s0,a0
    4548:	a891                	j	459c <_Z16matrixOperationsIfEvv+0x1686>
    454a:	842a                	mv	s0,a0
    454c:	a8a1                	j	45a4 <_Z16matrixOperationsIfEvv+0x168e>
    454e:	842a                	mv	s0,a0
    4550:	a8b1                	j	45ac <_Z16matrixOperationsIfEvv+0x1696>
    4552:	65f2                	ld	a1,280(sp)
    4554:	842a                	mv	s0,a0
    4556:	852e                	mv	a0,a1
    4558:	a8a1                	j	45b0 <_Z16matrixOperationsIfEvv+0x169a>
    455a:	842a                	mv	s0,a0
    455c:	a8a1                	j	45b4 <_Z16matrixOperationsIfEvv+0x169e>
    455e:	842a                	mv	s0,a0
    4560:	a8b1                	j	45bc <_Z16matrixOperationsIfEvv+0x16a6>
    4562:	842a                	mv	s0,a0
    4564:	a085                	j	45c4 <_Z16matrixOperationsIfEvv+0x16ae>
    4566:	842a                	mv	s0,a0
    4568:	a095                	j	45cc <_Z16matrixOperationsIfEvv+0x16b6>
    456a:	842a                	mv	s0,a0
    456c:	7502                	ld	a0,32(sp)
    456e:	882fd0ef          	jal	15f0 <free@plt>
    4572:	7542                	ld	a0,48(sp)
    4574:	87cfd0ef          	jal	15f0 <free@plt>
    4578:	6506                	ld	a0,64(sp)
    457a:	876fd0ef          	jal	15f0 <free@plt>
    457e:	6566                	ld	a0,88(sp)
    4580:	870fd0ef          	jal	15f0 <free@plt>
    4584:	7546                	ld	a0,112(sp)
    4586:	86afd0ef          	jal	15f0 <free@plt>
    458a:	652a                	ld	a0,136(sp)
    458c:	864fd0ef          	jal	15f0 <free@plt>
    4590:	754e                	ld	a0,240(sp)
    4592:	85efd0ef          	jal	15f0 <free@plt>
    4596:	0a28                	add	a0,sp,280
    4598:	5f7130ef          	jal	1838e <_ZN5Eigen11EigenSolverINS_6MatrixIfLin1ELin1ELi0ELin1ELin1EEEED2Ev>
    459c:	20013503          	ld	a0,512(sp)
    45a0:	850fd0ef          	jal	15f0 <free@plt>
    45a4:	21813503          	ld	a0,536(sp)
    45a8:	848fd0ef          	jal	15f0 <free@plt>
    45ac:	23013503          	ld	a0,560(sp)
    45b0:	840fd0ef          	jal	15f0 <free@plt>
    45b4:	24813503          	ld	a0,584(sp)
    45b8:	838fd0ef          	jal	15f0 <free@plt>
    45bc:	26013503          	ld	a0,608(sp)
    45c0:	830fd0ef          	jal	15f0 <free@plt>
    45c4:	27813503          	ld	a0,632(sp)
    45c8:	828fd0ef          	jal	15f0 <free@plt>
    45cc:	29013503          	ld	a0,656(sp)
    45d0:	820fd0ef          	jal	15f0 <free@plt>
    45d4:	2a813503          	ld	a0,680(sp)
    45d8:	818fd0ef          	jal	15f0 <free@plt>
    45dc:	2c013503          	ld	a0,704(sp)
    45e0:	810fd0ef          	jal	15f0 <free@plt>
    45e4:	8522                	mv	a0,s0
    45e6:	8cafd0ef          	jal	16b0 <_Unwind_Resume@plt>
    45ea:	842a                	mv	s0,a0
    45ec:	b7e5                	j	45d4 <_Z16matrixOperationsIfEvv+0x16be>
    45ee:	842a                	mv	s0,a0
    45f0:	b75d                	j	4596 <_Z16matrixOperationsIfEvv+0x1680>

00000000000045f2 <_ZN5EigenlsINS_6MatrixIdLin1ELin1ELi0ELin1ELin1EEEEERSoS3_RKNS_9DenseBaseIT_EE>:
    45f2:	7101                	add	sp,sp,-512
    45f4:	ff86                	sd	ra,504(sp)
    45f6:	fba2                	sd	s0,496(sp)
    45f8:	f7a6                	sd	s1,488(sp)
    45fa:	f3ca                	sd	s2,480(sp)
    45fc:	efce                	sd	s3,472(sp)
    45fe:	ebd2                	sd	s4,464(sp)
    4600:	e7d6                	sd	s5,456(sp)
    4602:	e3da                	sd	s6,448(sp)
    4604:	ff5e                	sd	s7,440(sp)
    4606:	842e                	mv	s0,a1
    4608:	84aa                	mv	s1,a0
    460a:	0c010913          	add	s2,sp,192
    460e:	f94a                	sd	s2,176(sp)
    4610:	02000513          	li	a0,32
    4614:	0ca11023          	sh	a0,192(sp)
    4618:	4505                	li	a0,1
    461a:	fd2a                	sd	a0,184(sp)
    461c:	0a010993          	add	s3,sp,160
    4620:	e94e                	sd	s3,144(sp)
    4622:	45a9                	li	a1,10
    4624:	0ab11023          	sh	a1,160(sp)
    4628:	ed2a                	sd	a0,152(sp)
    462a:	08010a13          	add	s4,sp,128
    462e:	f8d2                	sd	s4,112(sp)
    4630:	fc82                	sd	zero,120(sp)
    4632:	08010023          	sb	zero,128(sp)
    4636:	06010a93          	add	s5,sp,96
    463a:	e8d6                	sd	s5,80(sp)
    463c:	ec82                	sd	zero,88(sp)
    463e:	06010023          	sb	zero,96(sp)
    4642:	04010b13          	add	s6,sp,64
    4646:	f85a                	sd	s6,48(sp)
    4648:	fc02                	sd	zero,56(sp)
    464a:	04010023          	sb	zero,64(sp)
    464e:	02010b93          	add	s7,sp,32
    4652:	e85e                	sd	s7,16(sp)
    4654:	ec02                	sd	zero,24(sp)
    4656:	02010023          	sb	zero,32(sp)
    465a:	0810                	add	a2,sp,16
    465c:	0988                	add	a0,sp,208
    465e:	55fd                	li	a1,-1
    4660:	1914                	add	a3,sp,176
    4662:	0918                	add	a4,sp,144
    4664:	189c                	add	a5,sp,112
    4666:	05010813          	add	a6,sp,80
    466a:	03010893          	add	a7,sp,48
    466e:	e032                	sd	a2,0(sp)
    4670:	4601                	li	a2,0
    4672:	227010ef          	jal	6098 <_ZN5Eigen8IOFormatC2EiiRKNSt7__cxx1112basic_stringIcSt11char_traitsIcESaIcEEES8_S8_S8_S8_S8_>
    4676:	0990                	add	a2,sp,208
    4678:	8526                	mv	a0,s1
    467a:	85a2                	mv	a1,s0
    467c:	564010ef          	jal	5be0 <_ZN5Eigen8internal12print_matrixINS_6MatrixIdLin1ELin1ELi0ELin1ELin1EEEEERSoS4_RKT_RKNS_8IOFormatE>
    4680:	842a                	mv	s0,a0
    4682:	655a                	ld	a0,400(sp)
    4684:	130c                	add	a1,sp,416
    4686:	00b50463          	beq	a0,a1,468e <_ZN5EigenlsINS_6MatrixIdLin1ELin1ELi0ELin1ELin1EEEEERSoS3_RKNS_9DenseBaseIT_EE+0x9c>
    468a:	f37fc0ef          	jal	15c0 <_ZdlPv@plt>
    468e:	7556                	ld	a0,368(sp)
    4690:	030c                	add	a1,sp,384
    4692:	00b50463          	beq	a0,a1,469a <_ZN5EigenlsINS_6MatrixIdLin1ELin1ELi0ELin1ELin1EEEEERSoS3_RKNS_9DenseBaseIT_EE+0xa8>
    4696:	f2bfc0ef          	jal	15c0 <_ZdlPv@plt>
    469a:	6556                	ld	a0,336(sp)
    469c:	128c                	add	a1,sp,352
    469e:	00b50463          	beq	a0,a1,46a6 <_ZN5EigenlsINS_6MatrixIdLin1ELin1ELi0ELin1ELin1EEEEERSoS3_RKNS_9DenseBaseIT_EE+0xb4>
    46a2:	f1ffc0ef          	jal	15c0 <_ZdlPv@plt>
    46a6:	7552                	ld	a0,304(sp)
    46a8:	028c                	add	a1,sp,320
    46aa:	00b50463          	beq	a0,a1,46b2 <_ZN5EigenlsINS_6MatrixIdLin1ELin1ELi0ELin1ELin1EEEEERSoS3_RKNS_9DenseBaseIT_EE+0xc0>
    46ae:	f13fc0ef          	jal	15c0 <_ZdlPv@plt>
    46b2:	6552                	ld	a0,272(sp)
    46b4:	120c                	add	a1,sp,288
    46b6:	00b50463          	beq	a0,a1,46be <_ZN5EigenlsINS_6MatrixIdLin1ELin1ELi0ELin1ELin1EEEEERSoS3_RKNS_9DenseBaseIT_EE+0xcc>
    46ba:	f07fc0ef          	jal	15c0 <_ZdlPv@plt>
    46be:	754e                	ld	a0,240(sp)
    46c0:	020c                	add	a1,sp,256
    46c2:	00b50463          	beq	a0,a1,46ca <_ZN5EigenlsINS_6MatrixIdLin1ELin1ELi0ELin1ELin1EEEEERSoS3_RKNS_9DenseBaseIT_EE+0xd8>
    46c6:	efbfc0ef          	jal	15c0 <_ZdlPv@plt>
    46ca:	654e                	ld	a0,208(sp)
    46cc:	118c                	add	a1,sp,224
    46ce:	00b50463          	beq	a0,a1,46d6 <_ZN5EigenlsINS_6MatrixIdLin1ELin1ELi0ELin1ELin1EEEEERSoS3_RKNS_9DenseBaseIT_EE+0xe4>
    46d2:	eeffc0ef          	jal	15c0 <_ZdlPv@plt>
    46d6:	6542                	ld	a0,16(sp)
    46d8:	01750463          	beq	a0,s7,46e0 <_ZN5EigenlsINS_6MatrixIdLin1ELin1ELi0ELin1ELin1EEEEERSoS3_RKNS_9DenseBaseIT_EE+0xee>
    46dc:	ee5fc0ef          	jal	15c0 <_ZdlPv@plt>
    46e0:	7542                	ld	a0,48(sp)
    46e2:	01650463          	beq	a0,s6,46ea <_ZN5EigenlsINS_6MatrixIdLin1ELin1ELi0ELin1ELin1EEEEERSoS3_RKNS_9DenseBaseIT_EE+0xf8>
    46e6:	edbfc0ef          	jal	15c0 <_ZdlPv@plt>
    46ea:	6546                	ld	a0,80(sp)
    46ec:	01550463          	beq	a0,s5,46f4 <_ZN5EigenlsINS_6MatrixIdLin1ELin1ELi0ELin1ELin1EEEEERSoS3_RKNS_9DenseBaseIT_EE+0x102>
    46f0:	ed1fc0ef          	jal	15c0 <_ZdlPv@plt>
    46f4:	7546                	ld	a0,112(sp)
    46f6:	01450463          	beq	a0,s4,46fe <_ZN5EigenlsINS_6MatrixIdLin1ELin1ELi0ELin1ELin1EEEEERSoS3_RKNS_9DenseBaseIT_EE+0x10c>
    46fa:	ec7fc0ef          	jal	15c0 <_ZdlPv@plt>
    46fe:	654a                	ld	a0,144(sp)
    4700:	01350463          	beq	a0,s3,4708 <_ZN5EigenlsINS_6MatrixIdLin1ELin1ELi0ELin1ELin1EEEEERSoS3_RKNS_9DenseBaseIT_EE+0x116>
    4704:	ebdfc0ef          	jal	15c0 <_ZdlPv@plt>
    4708:	754a                	ld	a0,176(sp)
    470a:	01250463          	beq	a0,s2,4712 <_ZN5EigenlsINS_6MatrixIdLin1ELin1ELi0ELin1ELin1EEEEERSoS3_RKNS_9DenseBaseIT_EE+0x120>
    470e:	eb3fc0ef          	jal	15c0 <_ZdlPv@plt>
    4712:	8522                	mv	a0,s0
    4714:	70fe                	ld	ra,504(sp)
    4716:	745e                	ld	s0,496(sp)
    4718:	74be                	ld	s1,488(sp)
    471a:	791e                	ld	s2,480(sp)
    471c:	69fe                	ld	s3,472(sp)
    471e:	6a5e                	ld	s4,464(sp)
    4720:	6abe                	ld	s5,456(sp)
    4722:	6b1e                	ld	s6,448(sp)
    4724:	7bfa                	ld	s7,440(sp)
    4726:	20010113          	add	sp,sp,512
    472a:	8082                	ret
    472c:	842a                	mv	s0,a0
    472e:	0988                	add	a0,sp,208
    4730:	57d010ef          	jal	64ac <_ZN5Eigen8IOFormatD2Ev>
    4734:	a011                	j	4738 <_ZN5EigenlsINS_6MatrixIdLin1ELin1ELi0ELin1ELin1EEEEERSoS3_RKNS_9DenseBaseIT_EE+0x146>
    4736:	842a                	mv	s0,a0
    4738:	6542                	ld	a0,16(sp)
    473a:	03751463          	bne	a0,s7,4762 <_ZN5EigenlsINS_6MatrixIdLin1ELin1ELi0ELin1ELin1EEEEERSoS3_RKNS_9DenseBaseIT_EE+0x170>
    473e:	7542                	ld	a0,48(sp)
    4740:	03651663          	bne	a0,s6,476c <_ZN5EigenlsINS_6MatrixIdLin1ELin1ELi0ELin1ELin1EEEEERSoS3_RKNS_9DenseBaseIT_EE+0x17a>
    4744:	6546                	ld	a0,80(sp)
    4746:	03551863          	bne	a0,s5,4776 <_ZN5EigenlsINS_6MatrixIdLin1ELin1ELi0ELin1ELin1EEEEERSoS3_RKNS_9DenseBaseIT_EE+0x184>
    474a:	7546                	ld	a0,112(sp)
    474c:	03451a63          	bne	a0,s4,4780 <_ZN5EigenlsINS_6MatrixIdLin1ELin1ELi0ELin1ELin1EEEEERSoS3_RKNS_9DenseBaseIT_EE+0x18e>
    4750:	654a                	ld	a0,144(sp)
    4752:	03351c63          	bne	a0,s3,478a <_ZN5EigenlsINS_6MatrixIdLin1ELin1ELi0ELin1ELin1EEEEERSoS3_RKNS_9DenseBaseIT_EE+0x198>
    4756:	754a                	ld	a0,176(sp)
    4758:	03251e63          	bne	a0,s2,4794 <_ZN5EigenlsINS_6MatrixIdLin1ELin1ELi0ELin1ELin1EEEEERSoS3_RKNS_9DenseBaseIT_EE+0x1a2>
    475c:	8522                	mv	a0,s0
    475e:	f53fc0ef          	jal	16b0 <_Unwind_Resume@plt>
    4762:	e5ffc0ef          	jal	15c0 <_ZdlPv@plt>
    4766:	7542                	ld	a0,48(sp)
    4768:	fd650ee3          	beq	a0,s6,4744 <_ZN5EigenlsINS_6MatrixIdLin1ELin1ELi0ELin1ELin1EEEEERSoS3_RKNS_9DenseBaseIT_EE+0x152>
    476c:	e55fc0ef          	jal	15c0 <_ZdlPv@plt>
    4770:	6546                	ld	a0,80(sp)
    4772:	fd550ce3          	beq	a0,s5,474a <_ZN5EigenlsINS_6MatrixIdLin1ELin1ELi0ELin1ELin1EEEEERSoS3_RKNS_9DenseBaseIT_EE+0x158>
    4776:	e4bfc0ef          	jal	15c0 <_ZdlPv@plt>
    477a:	7546                	ld	a0,112(sp)
    477c:	fd450ae3          	beq	a0,s4,4750 <_ZN5EigenlsINS_6MatrixIdLin1ELin1ELi0ELin1ELin1EEEEERSoS3_RKNS_9DenseBaseIT_EE+0x15e>
    4780:	e41fc0ef          	jal	15c0 <_ZdlPv@plt>
    4784:	654a                	ld	a0,144(sp)
    4786:	fd3508e3          	beq	a0,s3,4756 <_ZN5EigenlsINS_6MatrixIdLin1ELin1ELi0ELin1ELin1EEEEERSoS3_RKNS_9DenseBaseIT_EE+0x164>
    478a:	e37fc0ef          	jal	15c0 <_ZdlPv@plt>
    478e:	754a                	ld	a0,176(sp)
    4790:	fd2506e3          	beq	a0,s2,475c <_ZN5EigenlsINS_6MatrixIdLin1ELin1ELi0ELin1ELin1EEEEERSoS3_RKNS_9DenseBaseIT_EE+0x16a>
    4794:	e2dfc0ef          	jal	15c0 <_ZdlPv@plt>
    4798:	8522                	mv	a0,s0
    479a:	f17fc0ef          	jal	16b0 <_Unwind_Resume@plt>

000000000000479e <_ZN5Eigen11EigenSolverINS_6MatrixIdLin1ELin1ELi0ELin1ELin1EEEEC2IS2_EERKNS_9EigenBaseIT_EEb>:
    479e:	7139                	add	sp,sp,-64
    47a0:	fc06                	sd	ra,56(sp)
    47a2:	f822                	sd	s0,48(sp)
    47a4:	f426                	sd	s1,40(sp)
    47a6:	f04a                	sd	s2,32(sp)
    47a8:	ec4e                	sd	s3,24(sp)
    47aa:	e852                	sd	s4,16(sp)
    47ac:	e456                	sd	s5,8(sp)
    47ae:	e05a                	sd	s6,0(sp)
    47b0:	6598                	ld	a4,8(a1)
    47b2:	6994                	ld	a3,16(a1)
    47b4:	842a                	mv	s0,a0
    47b6:	00053823          	sd	zero,16(a0)
    47ba:	00053423          	sd	zero,8(a0)
    47be:	00e6e533          	or	a0,a3,a4
    47c2:	00043023          	sd	zero,0(s0)
    47c6:	0c054463          	bltz	a0,488e <_ZN5Eigen11EigenSolverINS_6MatrixIdLin1ELin1ELi0ELin1ELin1EEEEC2IS2_EERKNS_9EigenBaseIT_EEb+0xf0>
    47ca:	84ae                	mv	s1,a1
    47cc:	8a32                	mv	s4,a2
    47ce:	00173513          	seqz	a0,a4
    47d2:	0016b593          	seqz	a1,a3
    47d6:	8d4d                	or	a0,a0,a1
    47d8:	e519                	bnez	a0,47e6 <_ZN5Eigen11EigenSolverINS_6MatrixIdLin1ELin1ELi0ELin1ELin1EEEEC2IS2_EERKNS_9EigenBaseIT_EEb+0x48>
    47da:	557d                	li	a0,-1
    47dc:	8105                	srl	a0,a0,0x1
    47de:	02d54533          	div	a0,a0,a3
    47e2:	10e54663          	blt	a0,a4,48ee <_ZN5Eigen11EigenSolverINS_6MatrixIdLin1ELin1ELi0ELin1ELin1EEEEC2IS2_EERKNS_9EigenBaseIT_EEb+0x150>
    47e6:	02e685b3          	mul	a1,a3,a4
    47ea:	8522                	mv	a0,s0
    47ec:	863a                	mv	a2,a4
    47ee:	20e010ef          	jal	59fc <_ZN5Eigen12DenseStorageIdLin1ELin1ELin1ELi0EE6resizeElll>
    47f2:	688c                	ld	a1,16(s1)
    47f4:	01840913          	add	s2,s0,24
    47f8:	02043023          	sd	zero,32(s0)
    47fc:	00043c23          	sd	zero,24(s0)
    4800:	854a                	mv	a0,s2
    4802:	17a090ef          	jal	d97c <_ZN5Eigen15PlainObjectBaseINS_6MatrixISt7complexIdELin1ELi1ELi0ELin1ELi1EEEE6resizeEl>
    4806:	02041423          	sh	zero,40(s0)
    480a:	688c                	ld	a1,16(s1)
    480c:	03040993          	add	s3,s0,48
    4810:	854e                	mv	a0,s3
    4812:	5e3080ef          	jal	d5f4 <_ZN5Eigen9RealSchurINS_6MatrixIdLin1ELin1ELi0ELin1ELin1EEEEC2El>
    4816:	6490                	ld	a2,8(s1)
    4818:	6894                	ld	a3,16(s1)
    481a:	0c043823          	sd	zero,208(s0)
    481e:	0c043423          	sd	zero,200(s0)
    4822:	00c6e533          	or	a0,a3,a2
    4826:	0c043023          	sd	zero,192(s0)
    482a:	08054263          	bltz	a0,48ae <_ZN5Eigen11EigenSolverINS_6MatrixIdLin1ELin1ELi0ELin1ELin1EEEEC2IS2_EERKNS_9EigenBaseIT_EEb+0x110>
    482e:	00163513          	seqz	a0,a2
    4832:	0016b593          	seqz	a1,a3
    4836:	8d4d                	or	a0,a0,a1
    4838:	0c040a93          	add	s5,s0,192
    483c:	e519                	bnez	a0,484a <_ZN5Eigen11EigenSolverINS_6MatrixIdLin1ELin1ELi0ELin1ELin1EEEEC2IS2_EERKNS_9EigenBaseIT_EEb+0xac>
    483e:	557d                	li	a0,-1
    4840:	8105                	srl	a0,a0,0x1
    4842:	02d54533          	div	a0,a0,a3
    4846:	0cc54763          	blt	a0,a2,4914 <_ZN5Eigen11EigenSolverINS_6MatrixIdLin1ELin1ELi0ELin1ELin1EEEEC2IS2_EERKNS_9EigenBaseIT_EEb+0x176>
    484a:	02c685b3          	mul	a1,a3,a2
    484e:	8556                	mv	a0,s5
    4850:	1ac010ef          	jal	59fc <_ZN5Eigen12DenseStorageIdLin1ELin1ELin1ELi0EE6resizeElll>
    4854:	688c                	ld	a1,16(s1)
    4856:	0e043023          	sd	zero,224(s0)
    485a:	0c043c23          	sd	zero,216(s0)
    485e:	0605c863          	bltz	a1,48ce <_ZN5Eigen11EigenSolverINS_6MatrixIdLin1ELin1ELi0ELin1ELin1EEEEC2IS2_EERKNS_9EigenBaseIT_EEb+0x130>
    4862:	0d840b13          	add	s6,s0,216
    4866:	4685                	li	a3,1
    4868:	855a                	mv	a0,s6
    486a:	862e                	mv	a2,a1
    486c:	396090ef          	jal	dc02 <_ZN5Eigen12DenseStorageIdLin1ELin1ELi1ELi0EE6resizeElll>
    4870:	8522                	mv	a0,s0
    4872:	85a6                	mv	a1,s1
    4874:	8652                	mv	a2,s4
    4876:	6bd080ef          	jal	d732 <_ZN5Eigen11EigenSolverINS_6MatrixIdLin1ELin1ELi0ELin1ELin1EEEE7computeIS2_EERS3_RKNS_9EigenBaseIT_EEb>
    487a:	70e2                	ld	ra,56(sp)
    487c:	7442                	ld	s0,48(sp)
    487e:	74a2                	ld	s1,40(sp)
    4880:	7902                	ld	s2,32(sp)
    4882:	69e2                	ld	s3,24(sp)
    4884:	6a42                	ld	s4,16(sp)
    4886:	6aa2                	ld	s5,8(sp)
    4888:	6b02                	ld	s6,0(sp)
    488a:	6121                	add	sp,sp,64
    488c:	8082                	ret
    488e:	00025517          	auipc	a0,0x25
    4892:	3cc50513          	add	a0,a0,972 # 29c5a <_IO_stdin_used+0x372>
    4896:	00025597          	auipc	a1,0x25
    489a:	55358593          	add	a1,a1,1363 # 29de9 <_IO_stdin_used+0x501>
    489e:	00025617          	auipc	a2,0x25
    48a2:	58060693          	add	a3,a2,1408 # 29e1e <_IO_stdin_used+0x536>
    48a6:	11d00613          	li	a2,285
    48aa:	d07fc0ef          	jal	15b0 <__assert_fail@plt>
    48ae:	00025517          	auipc	a0,0x25
    48b2:	3ac50513          	add	a0,a0,940 # 29c5a <_IO_stdin_used+0x372>
    48b6:	00025597          	auipc	a1,0x25
    48ba:	53358593          	add	a1,a1,1331 # 29de9 <_IO_stdin_used+0x501>
    48be:	00025617          	auipc	a2,0x25
    48c2:	56060693          	add	a3,a2,1376 # 29e1e <_IO_stdin_used+0x536>
    48c6:	11d00613          	li	a2,285
    48ca:	ce7fc0ef          	jal	15b0 <__assert_fail@plt>
    48ce:	00028517          	auipc	a0,0x28
    48d2:	4bc50513          	add	a0,a0,1212 # 2cd8a <_IO_stdin_used+0x34a2>
    48d6:	00025597          	auipc	a1,0x25
    48da:	51358593          	add	a1,a1,1299 # 29de9 <_IO_stdin_used+0x501>
    48de:	0002d617          	auipc	a2,0x2d
    48e2:	8ff60693          	add	a3,a2,-1793 # 311dd <_IO_stdin_used+0x78f5>
    48e6:	13800613          	li	a2,312
    48ea:	cc7fc0ef          	jal	15b0 <__assert_fail@plt>
    48ee:	4521                	li	a0,8
    48f0:	c61fc0ef          	jal	1550 <__cxa_allocate_exception@plt>
    48f4:	00048597          	auipc	a1,0x48
    48f8:	87c5b583          	ld	a1,-1924(a1) # 4c170 <_ZTVSt9bad_alloc@GLIBCXX_3.4>
    48fc:	05c1                	add	a1,a1,16
    48fe:	e10c                	sd	a1,0(a0)
    4900:	00048597          	auipc	a1,0x48
    4904:	8905b583          	ld	a1,-1904(a1) # 4c190 <_ZTISt9bad_alloc@GLIBCXX_3.4>
    4908:	00048617          	auipc	a2,0x48
    490c:	85863603          	ld	a2,-1960(a2) # 4c160 <_ZNSt9bad_allocD1Ev@GLIBCXX_3.4>
    4910:	d91fc0ef          	jal	16a0 <__cxa_throw@plt>
    4914:	4521                	li	a0,8
    4916:	c3bfc0ef          	jal	1550 <__cxa_allocate_exception@plt>
    491a:	00048597          	auipc	a1,0x48
    491e:	8565b583          	ld	a1,-1962(a1) # 4c170 <_ZTVSt9bad_alloc@GLIBCXX_3.4>
    4922:	05c1                	add	a1,a1,16
    4924:	e10c                	sd	a1,0(a0)
    4926:	00048597          	auipc	a1,0x48
    492a:	86a5b583          	ld	a1,-1942(a1) # 4c190 <_ZTISt9bad_alloc@GLIBCXX_3.4>
    492e:	00048617          	auipc	a2,0x48
    4932:	83263603          	ld	a2,-1998(a2) # 4c160 <_ZNSt9bad_allocD1Ev@GLIBCXX_3.4>
    4936:	d6bfc0ef          	jal	16a0 <__cxa_throw@plt>
    493a:	a009                	j	493c <_ZN5Eigen11EigenSolverINS_6MatrixIdLin1ELin1ELi0ELin1ELin1EEEEC2IS2_EERKNS_9EigenBaseIT_EEb+0x19e>
    493c:	84aa                	mv	s1,a0
    493e:	000b3503          	ld	a0,0(s6)
    4942:	caffc0ef          	jal	15f0 <free@plt>
    4946:	a031                	j	4952 <_ZN5Eigen11EigenSolverINS_6MatrixIdLin1ELin1ELi0ELin1ELin1EEEEC2IS2_EERKNS_9EigenBaseIT_EEb+0x1b4>
    4948:	84aa                	mv	s1,a0
    494a:	a819                	j	4960 <_ZN5Eigen11EigenSolverINS_6MatrixIdLin1ELin1ELi0ELin1ELin1EEEEC2IS2_EERKNS_9EigenBaseIT_EEb+0x1c2>
    494c:	84aa                	mv	s1,a0
    494e:	a809                	j	4960 <_ZN5Eigen11EigenSolverINS_6MatrixIdLin1ELin1ELi0ELin1ELin1EEEEC2IS2_EERKNS_9EigenBaseIT_EEb+0x1c2>
    4950:	84aa                	mv	s1,a0
    4952:	000ab503          	ld	a0,0(s5)
    4956:	c9bfc0ef          	jal	15f0 <free@plt>
    495a:	854e                	mv	a0,s3
    495c:	7ef080ef          	jal	d94a <_ZN5Eigen9RealSchurINS_6MatrixIdLin1ELin1ELi0ELin1ELin1EEEED2Ev>
    4960:	00093503          	ld	a0,0(s2)
    4964:	c8dfc0ef          	jal	15f0 <free@plt>
    4968:	6008                	ld	a0,0(s0)
    496a:	c87fc0ef          	jal	15f0 <free@plt>
    496e:	8526                	mv	a0,s1
    4970:	d41fc0ef          	jal	16b0 <_Unwind_Resume@plt>
    4974:	84aa                	mv	s1,a0
    4976:	6008                	ld	a0,0(s0)
    4978:	c79fc0ef          	jal	15f0 <free@plt>
    497c:	8526                	mv	a0,s1
    497e:	d33fc0ef          	jal	16b0 <_Unwind_Resume@plt>

0000000000004982 <_ZNK5Eigen11EigenSolverINS_6MatrixIdLin1ELin1ELi0ELin1ELin1EEEE12eigenvectorsEv>:
    4982:	7179                	add	sp,sp,-48
    4984:	f406                	sd	ra,40(sp)
    4986:	f022                	sd	s0,32(sp)
    4988:	ec26                	sd	s1,24(sp)
    498a:	e84a                	sd	s2,16(sp)
    498c:	e44e                	sd	s3,8(sp)
    498e:	e052                	sd	s4,0(sp)
    4990:	89ae                	mv	s3,a1
    4992:	0285c583          	lbu	a1,40(a1)
    4996:	040582e3          	beqz	a1,51da <_ZNK5Eigen11EigenSolverINS_6MatrixIdLin1ELin1ELi0ELin1ELin1EEEE12eigenvectorsEv+0x858>
    499a:	8a2a                	mv	s4,a0
    499c:	0299c503          	lbu	a0,41(s3)
    49a0:	04050de3          	beqz	a0,51fa <_ZNK5Eigen11EigenSolverINS_6MatrixIdLin1ELin1ELi0ELin1ELin1EEEE12eigenvectorsEv+0x878>
    49a4:	0109b903          	ld	s2,16(s3)
    49a8:	000a3823          	sd	zero,16(s4)
    49ac:	000a3423          	sd	zero,8(s4)
    49b0:	000a3023          	sd	zero,0(s4)
    49b4:	060943e3          	bltz	s2,521a <_ZNK5Eigen11EigenSolverINS_6MatrixIdLin1ELin1ELi0ELin1ELin1EEEE12eigenvectorsEv+0x898>
    49b8:	00090863          	beqz	s2,49c8 <_ZNK5Eigen11EigenSolverINS_6MatrixIdLin1ELin1ELi0ELin1ELin1EEEE12eigenvectorsEv+0x46>
    49bc:	557d                	li	a0,-1
    49be:	8105                	srl	a0,a0,0x1
    49c0:	03255533          	divu	a0,a0,s2
    49c4:	07256be3          	bltu	a0,s2,523a <_ZNK5Eigen11EigenSolverINS_6MatrixIdLin1ELin1ELi0ELin1ELin1EEEE12eigenvectorsEv+0x8b8>
    49c8:	032905b3          	mul	a1,s2,s2
    49cc:	8552                	mv	a0,s4
    49ce:	864a                	mv	a2,s2
    49d0:	86ca                	mv	a3,s2
    49d2:	18f100ef          	jal	15360 <_ZN5Eigen12DenseStorageISt7complexIdELin1ELin1ELin1ELi0EE6resizeElll>
    49d6:	62090a63          	beqz	s2,500a <_ZNK5Eigen11EigenSolverINS_6MatrixIdLin1ELin1ELi0ELin1ELin1EEEE12eigenvectorsEv+0x688>
    49da:	4f01                	li	t5,0
    49dc:	00047517          	auipc	a0,0x47
    49e0:	7ec53787          	fld	fa5,2028(a0) # 4c1c8 <__SDATA_BEGIN__+0x10>
    49e4:	4851                	li	a6,20
    49e6:	cd927057          	.insn	4, 0xcd927057
    49ea:	5e003557          	.insn	4, 0x5e003557
    49ee:	f2000753          	fmv.d.x	fa4,zero
    49f2:	4891                	li	a7,4
    49f4:	42a5                	li	t0,9
    49f6:	5e003657          	.insn	4, 0x5e003657
    49fa:	42006757          	.insn	4, 0x42006757
    49fe:	5e003857          	.insn	4, 0x5e003857
    4a02:	420067d7          	.insn	4, 0x420067d7
    4a06:	5e003957          	.insn	4, 0x5e003957
    4a0a:	42006a57          	.insn	4, 0x42006a57
    4a0e:	a031                	j	4a1a <_ZNK5Eigen11EigenSolverINS_6MatrixIdLin1ELin1ELi0ELin1ELin1EEEE12eigenvectorsEv+0x98>
    4a10:	83fa                	mv	t2,t5
    4a12:	00138f13          	add	t5,t2,1
    4a16:	5f2f5a63          	bge	t5,s2,500a <_ZNK5Eigen11EigenSolverINS_6MatrixIdLin1ELin1ELi0ELin1ELin1EEEE12eigenvectorsEv+0x688>
    4a1a:	0189b503          	ld	a0,24(s3)
    4a1e:	004f1593          	sll	a1,t5,0x4
    4a22:	952e                	add	a0,a0,a1
    4a24:	2514                	fld	fa3,8(a0)
    4a26:	2110                	fld	fa2,0(a0)
    4a28:	22d6a6d3          	fabs.d	fa3,fa3
    4a2c:	22c62653          	fabs.d	fa2,fa2
    4a30:	12f67653          	fmul.d	fa2,fa2,fa5
    4a34:	a2c68553          	fle.d	a0,fa3,fa2
    4a38:	001f0393          	add	t2,t5,1
    4a3c:	0123c5b3          	xor	a1,t2,s2
    4a40:	0015b593          	seqz	a1,a1
    4a44:	8d4d                	or	a0,a0,a1
    4a46:	1a050463          	beqz	a0,4bee <_ZNK5Eigen11EigenSolverINS_6MatrixIdLin1ELin1ELi0ELin1ELin1EEEE12eigenvectorsEv+0x26c>
    4a4a:	0009b583          	ld	a1,0(s3)
    4a4e:	0089b683          	ld	a3,8(s3)
    4a52:	00b03533          	snez	a0,a1
    4a56:	0006a613          	slti	a2,a3,0
    4a5a:	8d71                	and	a0,a0,a2
    4a5c:	6c051f63          	bnez	a0,513a <_ZNK5Eigen11EigenSolverINS_6MatrixIdLin1ELin1ELi0ELin1ELin1EEEE12eigenvectorsEv+0x7b8>
    4a60:	0109b503          	ld	a0,16(s3)
    4a64:	000f2613          	slti	a2,t5,0
    4a68:	fff64613          	not	a2,a2
    4a6c:	00af2533          	slt	a0,t5,a0
    4a70:	8d71                	and	a0,a0,a2
    4a72:	62050463          	beqz	a0,509a <_ZNK5Eigen11EigenSolverINS_6MatrixIdLin1ELin1ELi0ELin1ELin1EEEE12eigenvectorsEv+0x718>
    4a76:	000a3e03          	ld	t3,0(s4)
    4a7a:	008a3603          	ld	a2,8(s4)
    4a7e:	01c03533          	snez	a0,t3
    4a82:	00062793          	slti	a5,a2,0
    4a86:	8d7d                	and	a0,a0,a5
    4a88:	68051963          	bnez	a0,511a <_ZNK5Eigen11EigenSolverINS_6MatrixIdLin1ELin1ELi0ELin1ELin1EEEE12eigenvectorsEv+0x798>
    4a8c:	010a3503          	ld	a0,16(s4)
    4a90:	5eaf5563          	bge	t5,a0,507a <_ZNK5Eigen11EigenSolverINS_6MatrixIdLin1ELin1ELi0ELin1ELin1EEEE12eigenvectorsEv+0x6f8>
    4a94:	66d61363          	bne	a2,a3,50fa <_ZNK5Eigen11EigenSolverINS_6MatrixIdLin1ELin1ELi0ELin1ELin1EEEE12eigenvectorsEv+0x778>
    4a98:	03e68533          	mul	a0,a3,t5
    4a9c:	06d05a63          	blez	a3,4b10 <_ZNK5Eigen11EigenSolverINS_6MatrixIdLin1ELin1ELi0ELin1ELin1EEEE12eigenvectorsEv+0x18e>
    4aa0:	03e60333          	mul	t1,a2,t5
    4aa4:	0312                	sll	t1,t1,0x4
    4aa6:	0306e763          	bltu	a3,a6,4ad4 <_ZNK5Eigen11EigenSolverINS_6MatrixIdLin1ELin1ELi0ELin1ELin1EEEE12eigenvectorsEv+0x152>
    4aaa:	050e                	sll	a0,a0,0x3
    4aac:	952e                	add	a0,a0,a1
    4aae:	006e07b3          	add	a5,t3,t1
    4ab2:	00469613          	sll	a2,a3,0x4
    4ab6:	9672                	add	a2,a2,t3
    4ab8:	961a                	add	a2,a2,t1
    4aba:	003f1713          	sll	a4,t5,0x3
    4abe:	0721                	add	a4,a4,8
    4ac0:	02e68733          	mul	a4,a3,a4
    4ac4:	972e                	add	a4,a4,a1
    4ac6:	00e7b733          	sltu	a4,a5,a4
    4aca:	00c53633          	sltu	a2,a0,a2
    4ace:	8e79                	and	a2,a2,a4
    4ad0:	40060f63          	beqz	a2,4eee <_ZNK5Eigen11EigenSolverINS_6MatrixIdLin1ELin1ELi0ELin1ELin1EEEE12eigenvectorsEv+0x56c>
    4ad4:	4381                	li	t2,0
    4ad6:	40768533          	sub	a0,a3,t2
    4ada:	03e68633          	mul	a2,a3,t5
    4ade:	060e                	sll	a2,a2,0x3
    4ae0:	00339693          	sll	a3,t2,0x3
    4ae4:	9636                	add	a2,a2,a3
    4ae6:	95b2                	add	a1,a1,a2
    4ae8:	0392                	sll	t2,t2,0x4
    4aea:	931e                	add	t1,t1,t2
    4aec:	006e0633          	add	a2,t3,t1
    4af0:	0621                	add	a2,a2,8
    4af2:	2194                	fld	fa3,0(a1)
    4af4:	fed63c27          	fsd	fa3,-8(a2)
    4af8:	00063023          	sd	zero,0(a2)
    4afc:	157d                	add	a0,a0,-1
    4afe:	05a1                	add	a1,a1,8
    4b00:	0641                	add	a2,a2,16
    4b02:	f965                	bnez	a0,4af2 <_ZNK5Eigen11EigenSolverINS_6MatrixIdLin1ELin1ELi0ELin1ELin1EEEE12eigenvectorsEv+0x170>
    4b04:	008a3683          	ld	a3,8(s4)
    4b08:	000a3e03          	ld	t3,0(s4)
    4b0c:	03e68533          	mul	a0,a3,t5
    4b10:	01c035b3          	snez	a1,t3
    4b14:	0006a613          	slti	a2,a3,0
    4b18:	8df1                	and	a1,a1,a2
    4b1a:	54059063          	bnez	a1,505a <_ZNK5Eigen11EigenSolverINS_6MatrixIdLin1ELin1ELi0ELin1ELin1EEEE12eigenvectorsEv+0x6d8>
    4b1e:	010a3583          	ld	a1,16(s4)
    4b22:	5abf5c63          	bge	t5,a1,50da <_ZNK5Eigen11EigenSolverINS_6MatrixIdLin1ELin1ELi0ELin1ELin1EEEE12eigenvectorsEv+0x758>
    4b26:	ee0685e3          	beqz	a3,4a10 <_ZNK5Eigen11EigenSolverINS_6MatrixIdLin1ELin1ELi0ELin1ELin1EEEE12eigenvectorsEv+0x8e>
    4b2a:	66d05863          	blez	a3,519a <_ZNK5Eigen11EigenSolverINS_6MatrixIdLin1ELin1ELi0ELin1ELin1EEEE12eigenvectorsEv+0x818>
    4b2e:	00451313          	sll	t1,a0,0x4
    4b32:	006e05b3          	add	a1,t3,t1
    4b36:	2194                	fld	fa3,0(a1)
    4b38:	2590                	fld	fa2,8(a1)
    4b3a:	12d6f6d3          	fmul.d	fa3,fa3,fa3
    4b3e:	fff68513          	add	a0,a3,-1
    4b42:	6ac676c3          	fmadd.d	fa3,fa2,fa2,fa3
    4b46:	24050263          	beqz	a0,4d8a <_ZNK5Eigen11EigenSolverINS_6MatrixIdLin1ELin1ELi0ELin1ELin1EEEE12eigenvectorsEv+0x408>
    4b4a:	4e85                	li	t4,1
    4b4c:	0656e363          	bltu	a3,t0,4bb2 <_ZNK5Eigen11EigenSolverINS_6MatrixIdLin1ELin1ELi0ELin1ELin1EEEE12eigenvectorsEv+0x230>
    4b50:	ff857393          	and	t2,a0,-8
    4b54:	00138e93          	add	t4,t2,1
    4b58:	c9927057          	.insn	4, 0xc9927057
    4b5c:	9ec0b457          	.insn	4, 0x9ec0b457
    4b60:	4206d457          	.insn	4, 0x4206d457
